
kernel:     file format elf32-i386


Disassembly of section .text:

00030000 <start>:
   30000:	0f 01 15 4c 00 03 00 	lgdtl  0x3004c
   30007:	ea 0e 00 03 00 08 00 	ljmp   $0x8,$0x3000e

0003000e <start_cond>:
   3000e:	66 b8 10 00          	mov    $0x10,%ax
   30012:	8e d8                	mov    %eax,%ds
   30014:	8e c0                	mov    %eax,%es
   30016:	8e d0                	mov    %eax,%ss
   30018:	0f 20 c0             	mov    %cr0,%eax
   3001b:	83 c8 01             	or     $0x1,%eax
   3001e:	0f 22 c0             	mov    %eax,%cr0
   30021:	bd 00 00 00 00       	mov    $0x0,%ebp
   30026:	bc 00 00 00 08       	mov    $0x8000000,%esp
   3002b:	83 ec 10             	sub    $0x10,%esp
   3002e:	e9 af 00 00 00       	jmp    300e2 <init>
   30033:	90                   	nop

00030034 <gdt>:
	...
   3003c:	ff                   	(bad)  
   3003d:	ff 00                	incl   (%eax)
   3003f:	00 00                	add    %al,(%eax)
   30041:	9a cf 00 ff ff 00 00 	lcall  $0x0,$0xffff00cf
   30048:	00                   	.byte 0x0
   30049:	92                   	xchg   %eax,%edx
   3004a:	cf                   	iret   
	...

0003004c <gdtdesc>:
   3004c:	17                   	pop    %ss
   3004d:	00 34 00             	add    %dh,(%eax,%eax,1)
   30050:	03 00                	add    (%eax),%eax

00030052 <vec0>:
   30052:	6a 00                	push   $0x0
   30054:	6a 00                	push   $0x0
   30056:	eb 7b                	jmp    300d3 <asm_do_irq>

00030058 <vec1>:
   30058:	6a 00                	push   $0x0
   3005a:	6a 01                	push   $0x1
   3005c:	eb 75                	jmp    300d3 <asm_do_irq>

0003005e <vec2>:
   3005e:	6a 00                	push   $0x0
   30060:	6a 02                	push   $0x2
   30062:	eb 6f                	jmp    300d3 <asm_do_irq>

00030064 <vec3>:
   30064:	6a 00                	push   $0x0
   30066:	6a 03                	push   $0x3
   30068:	eb 69                	jmp    300d3 <asm_do_irq>

0003006a <vec4>:
   3006a:	6a 00                	push   $0x0
   3006c:	6a 04                	push   $0x4
   3006e:	eb 63                	jmp    300d3 <asm_do_irq>

00030070 <vec5>:
   30070:	6a 00                	push   $0x0
   30072:	6a 05                	push   $0x5
   30074:	eb 5d                	jmp    300d3 <asm_do_irq>

00030076 <vec6>:
   30076:	6a 00                	push   $0x0
   30078:	6a 06                	push   $0x6
   3007a:	eb 57                	jmp    300d3 <asm_do_irq>

0003007c <vec7>:
   3007c:	6a 00                	push   $0x0
   3007e:	6a 07                	push   $0x7
   30080:	eb 51                	jmp    300d3 <asm_do_irq>

00030082 <vec8>:
   30082:	6a 08                	push   $0x8
   30084:	eb 4d                	jmp    300d3 <asm_do_irq>

00030086 <vec9>:
   30086:	6a 00                	push   $0x0
   30088:	6a 09                	push   $0x9
   3008a:	eb 47                	jmp    300d3 <asm_do_irq>

0003008c <vec10>:
   3008c:	6a 0a                	push   $0xa
   3008e:	eb 43                	jmp    300d3 <asm_do_irq>

00030090 <vec11>:
   30090:	6a 0b                	push   $0xb
   30092:	eb 3f                	jmp    300d3 <asm_do_irq>

00030094 <vec12>:
   30094:	6a 0c                	push   $0xc
   30096:	eb 3b                	jmp    300d3 <asm_do_irq>

00030098 <vec13>:
   30098:	6a 0d                	push   $0xd
   3009a:	eb 37                	jmp    300d3 <asm_do_irq>

0003009c <vec14>:
   3009c:	6a 0e                	push   $0xe
   3009e:	eb 33                	jmp    300d3 <asm_do_irq>

000300a0 <vecsys>:
   300a0:	6a 00                	push   $0x0
   300a2:	68 80 00 00 00       	push   $0x80
   300a7:	eb 2a                	jmp    300d3 <asm_do_irq>

000300a9 <irq0>:
   300a9:	6a 00                	push   $0x0
   300ab:	68 e8 03 00 00       	push   $0x3e8
   300b0:	eb 21                	jmp    300d3 <asm_do_irq>

000300b2 <irq1>:
   300b2:	6a 00                	push   $0x0
   300b4:	68 e9 03 00 00       	push   $0x3e9
   300b9:	eb 18                	jmp    300d3 <asm_do_irq>

000300bb <irq2>:
   300bb:	6a 00                	push   $0x0
   300bd:	68 ea 03 00 00       	push   $0x3ea
   300c2:	eb 0f                	jmp    300d3 <asm_do_irq>

000300c4 <irq14>:
   300c4:	6a 00                	push   $0x0
   300c6:	68 f6 03 00 00       	push   $0x3f6
   300cb:	eb 06                	jmp    300d3 <asm_do_irq>

000300cd <irq_empty>:
   300cd:	6a 00                	push   $0x0
   300cf:	6a ff                	push   $0xffffffff
   300d1:	eb 00                	jmp    300d3 <asm_do_irq>

000300d3 <asm_do_irq>:
   300d3:	60                   	pusha  
   300d4:	54                   	push   %esp
   300d5:	e8 7d 0a 00 00       	call   30b57 <irq_handle>
   300da:	83 c4 04             	add    $0x4,%esp
   300dd:	61                   	popa   
   300de:	83 c4 08             	add    $0x8,%esp
   300e1:	cf                   	iret   

000300e2 <init>:
   300e2:	55                   	push   %ebp
   300e3:	89 e5                	mov    %esp,%ebp
   300e5:	e8 5a 00 00 00       	call   30144 <__x86.get_pc_thunk.ax>
   300ea:	05 16 cf 00 00       	add    $0xcf16,%eax
   300ef:	8d 80 00 31 ff ff    	lea    -0xcf00(%eax),%eax
   300f5:	ff e0                	jmp    *%eax
   300f7:	b8 01 00 00 00       	mov    $0x1,%eax
   300fc:	82                   	nemu_trap 
   300fd:	90                   	nop
   300fe:	5d                   	pop    %ebp
   300ff:	c3                   	ret    

00030100 <init_cond>:
   30100:	55                   	push   %ebp
   30101:	89 e5                	mov    %esp,%ebp
   30103:	53                   	push   %ebx
   30104:	83 ec 14             	sub    $0x14,%esp
   30107:	e8 3c 00 00 00       	call   30148 <__x86.get_pc_thunk.bx>
   3010c:	81 c3 f4 ce 00 00    	add    $0xcef4,%ebx
   30112:	8d 83 40 c0 ff ff    	lea    -0x3fc0(%ebx),%eax
   30118:	50                   	push   %eax
   30119:	6a 52                	push   $0x52
   3011b:	8d 83 00 c0 ff ff    	lea    -0x4000(%ebx),%eax
   30121:	50                   	push   %eax
   30122:	8d 83 0c c0 ff ff    	lea    -0x3ff4(%ebx),%eax
   30128:	50                   	push   %eax
   30129:	e8 08 09 00 00       	call   30a36 <printk>
   3012e:	83 c4 10             	add    $0x10,%esp
   30131:	e8 0b 07 00 00       	call   30841 <loader>
   30136:	89 45 f4             	mov    %eax,-0xc(%ebp)
   30139:	8b 45 f4             	mov    -0xc(%ebp),%eax
   3013c:	ff d0                	call   *%eax
   3013e:	90                   	nop
   3013f:	8b 5d fc             	mov    -0x4(%ebp),%ebx
   30142:	c9                   	leave  
   30143:	c3                   	ret    

00030144 <__x86.get_pc_thunk.ax>:
   30144:	8b 04 24             	mov    (%esp),%eax
   30147:	c3                   	ret    

00030148 <__x86.get_pc_thunk.bx>:
   30148:	8b 1c 24             	mov    (%esp),%ebx
   3014b:	c3                   	ret    

0003014c <in_byte>:
   3014c:	55                   	push   %ebp
   3014d:	89 e5                	mov    %esp,%ebp
   3014f:	83 ec 14             	sub    $0x14,%esp
   30152:	e8 ed ff ff ff       	call   30144 <__x86.get_pc_thunk.ax>
   30157:	05 a9 ce 00 00       	add    $0xcea9,%eax
   3015c:	8b 45 08             	mov    0x8(%ebp),%eax
   3015f:	66 89 45 ec          	mov    %ax,-0x14(%ebp)
   30163:	8b 45 ec             	mov    -0x14(%ebp),%eax
   30166:	89 c2                	mov    %eax,%edx
   30168:	ec                   	in     (%dx),%al
   30169:	88 45 ff             	mov    %al,-0x1(%ebp)
   3016c:	8a 45 ff             	mov    -0x1(%ebp),%al
   3016f:	c9                   	leave  
   30170:	c3                   	ret    

00030171 <out_byte>:
   30171:	55                   	push   %ebp
   30172:	89 e5                	mov    %esp,%ebp
   30174:	83 ec 08             	sub    $0x8,%esp
   30177:	e8 c8 ff ff ff       	call   30144 <__x86.get_pc_thunk.ax>
   3017c:	05 84 ce 00 00       	add    $0xce84,%eax
   30181:	8b 45 08             	mov    0x8(%ebp),%eax
   30184:	8b 55 0c             	mov    0xc(%ebp),%edx
   30187:	66 89 45 fc          	mov    %ax,-0x4(%ebp)
   3018b:	88 d0                	mov    %dl,%al
   3018d:	88 45 f8             	mov    %al,-0x8(%ebp)
   30190:	8a 45 f8             	mov    -0x8(%ebp),%al
   30193:	8b 55 fc             	mov    -0x4(%ebp),%edx
   30196:	ee                   	out    %al,(%dx)
   30197:	90                   	nop
   30198:	c9                   	leave  
   30199:	c3                   	ret    

0003019a <out_long>:
   3019a:	55                   	push   %ebp
   3019b:	89 e5                	mov    %esp,%ebp
   3019d:	83 ec 04             	sub    $0x4,%esp
   301a0:	e8 9f ff ff ff       	call   30144 <__x86.get_pc_thunk.ax>
   301a5:	05 5b ce 00 00       	add    $0xce5b,%eax
   301aa:	8b 45 08             	mov    0x8(%ebp),%eax
   301ad:	66 89 45 fc          	mov    %ax,-0x4(%ebp)
   301b1:	8b 45 0c             	mov    0xc(%ebp),%eax
   301b4:	8b 55 fc             	mov    -0x4(%ebp),%edx
   301b7:	ef                   	out    %eax,(%dx)
   301b8:	90                   	nop
   301b9:	c9                   	leave  
   301ba:	c3                   	ret    

000301bb <dma_prepare>:
   301bb:	55                   	push   %ebp
   301bc:	89 e5                	mov    %esp,%ebp
   301be:	83 ec 10             	sub    $0x10,%esp
   301c1:	e8 7e ff ff ff       	call   30144 <__x86.get_pc_thunk.ax>
   301c6:	05 3a ce 00 00       	add    $0xce3a,%eax
   301cb:	8b 55 08             	mov    0x8(%ebp),%edx
   301ce:	89 55 fc             	mov    %edx,-0x4(%ebp)
   301d1:	c7 c2 54 00 07 00    	mov    $0x70054,%edx
   301d7:	8b 4d fc             	mov    -0x4(%ebp),%ecx
   301da:	89 0a                	mov    %ecx,(%edx)
   301dc:	c7 c2 54 00 07 00    	mov    $0x70054,%edx
   301e2:	66 c7 42 04 00 02    	movw   $0x200,0x4(%edx)
   301e8:	c7 c2 54 00 07 00    	mov    $0x70054,%edx
   301ee:	8a 4a 07             	mov    0x7(%edx),%cl
   301f1:	83 c9 80             	or     $0xffffff80,%ecx
   301f4:	88 4a 07             	mov    %cl,0x7(%edx)
   301f7:	c7 c1 54 00 07 00    	mov    $0x70054,%ecx
   301fd:	66 8b 51 06          	mov    0x6(%ecx),%dx
   30201:	81 e2 00 80 ff ff    	and    $0xffff8000,%edx
   30207:	66 89 51 06          	mov    %dx,0x6(%ecx)
   3020b:	c7 c0 54 00 07 00    	mov    $0x70054,%eax
   30211:	89 45 f8             	mov    %eax,-0x8(%ebp)
   30214:	ff 75 f8             	pushl  -0x8(%ebp)
   30217:	68 44 c0 00 00       	push   $0xc044
   3021c:	e8 79 ff ff ff       	call   3019a <out_long>
   30221:	83 c4 08             	add    $0x8,%esp
   30224:	90                   	nop
   30225:	c9                   	leave  
   30226:	c3                   	ret    

00030227 <dma_issue_read>:
   30227:	55                   	push   %ebp
   30228:	89 e5                	mov    %esp,%ebp
   3022a:	e8 15 ff ff ff       	call   30144 <__x86.get_pc_thunk.ax>
   3022f:	05 d1 cd 00 00       	add    $0xcdd1,%eax
   30234:	68 40 c0 00 00       	push   $0xc040
   30239:	e8 0e ff ff ff       	call   3014c <in_byte>
   3023e:	83 c4 04             	add    $0x4,%esp
   30241:	83 c8 09             	or     $0x9,%eax
   30244:	0f b6 c0             	movzbl %al,%eax
   30247:	50                   	push   %eax
   30248:	68 40 c0 00 00       	push   $0xc040
   3024d:	e8 1f ff ff ff       	call   30171 <out_byte>
   30252:	83 c4 08             	add    $0x8,%esp
   30255:	90                   	nop
   30256:	c9                   	leave  
   30257:	c3                   	ret    

00030258 <wait_intr>:
   30258:	55                   	push   %ebp
   30259:	89 e5                	mov    %esp,%ebp
   3025b:	e8 e4 fe ff ff       	call   30144 <__x86.get_pc_thunk.ax>
   30260:	05 a0 cd 00 00       	add    $0xcda0,%eax
   30265:	f4                   	hlt    
   30266:	90                   	nop
   30267:	5d                   	pop    %ebp
   30268:	c3                   	ret    

00030269 <ide_read>:
   30269:	55                   	push   %ebp
   3026a:	89 e5                	mov    %esp,%ebp
   3026c:	56                   	push   %esi
   3026d:	53                   	push   %ebx
   3026e:	83 ec 10             	sub    $0x10,%esp
   30271:	e8 d2 fe ff ff       	call   30148 <__x86.get_pc_thunk.bx>
   30276:	81 c3 8a cd 00 00    	add    $0xcd8a,%ebx
   3027c:	c7 45 f4 00 00 00 00 	movl   $0x0,-0xc(%ebp)
   30283:	eb 22                	jmp    302a7 <ide_read+0x3e>
   30285:	8b 55 0c             	mov    0xc(%ebp),%edx
   30288:	8b 45 f4             	mov    -0xc(%ebp),%eax
   3028b:	01 d0                	add    %edx,%eax
   3028d:	8b 4d 08             	mov    0x8(%ebp),%ecx
   30290:	8b 55 f4             	mov    -0xc(%ebp),%edx
   30293:	8d 34 11             	lea    (%ecx,%edx,1),%esi
   30296:	83 ec 0c             	sub    $0xc,%esp
   30299:	50                   	push   %eax
   3029a:	e8 c6 02 00 00       	call   30565 <read_byte>
   3029f:	83 c4 10             	add    $0x10,%esp
   302a2:	88 06                	mov    %al,(%esi)
   302a4:	ff 45 f4             	incl   -0xc(%ebp)
   302a7:	8b 45 f4             	mov    -0xc(%ebp),%eax
   302aa:	3b 45 10             	cmp    0x10(%ebp),%eax
   302ad:	72 d6                	jb     30285 <ide_read+0x1c>
   302af:	90                   	nop
   302b0:	8d 65 f8             	lea    -0x8(%ebp),%esp
   302b3:	5b                   	pop    %ebx
   302b4:	5e                   	pop    %esi
   302b5:	5d                   	pop    %ebp
   302b6:	c3                   	ret    

000302b7 <ide_write>:
   302b7:	55                   	push   %ebp
   302b8:	89 e5                	mov    %esp,%ebp
   302ba:	53                   	push   %ebx
   302bb:	83 ec 14             	sub    $0x14,%esp
   302be:	e8 85 fe ff ff       	call   30148 <__x86.get_pc_thunk.bx>
   302c3:	81 c3 3d cd 00 00    	add    $0xcd3d,%ebx
   302c9:	c7 45 f4 00 00 00 00 	movl   $0x0,-0xc(%ebp)
   302d0:	eb 25                	jmp    302f7 <ide_write+0x40>
   302d2:	8b 55 08             	mov    0x8(%ebp),%edx
   302d5:	8b 45 f4             	mov    -0xc(%ebp),%eax
   302d8:	01 d0                	add    %edx,%eax
   302da:	8a 00                	mov    (%eax),%al
   302dc:	0f b6 c0             	movzbl %al,%eax
   302df:	8b 4d 0c             	mov    0xc(%ebp),%ecx
   302e2:	8b 55 f4             	mov    -0xc(%ebp),%edx
   302e5:	01 ca                	add    %ecx,%edx
   302e7:	83 ec 08             	sub    $0x8,%esp
   302ea:	50                   	push   %eax
   302eb:	52                   	push   %edx
   302ec:	e8 b1 02 00 00       	call   305a2 <write_byte>
   302f1:	83 c4 10             	add    $0x10,%esp
   302f4:	ff 45 f4             	incl   -0xc(%ebp)
   302f7:	8b 45 f4             	mov    -0xc(%ebp),%eax
   302fa:	3b 45 10             	cmp    0x10(%ebp),%eax
   302fd:	72 d3                	jb     302d2 <ide_write+0x1b>
   302ff:	90                   	nop
   30300:	8b 5d fc             	mov    -0x4(%ebp),%ebx
   30303:	c9                   	leave  
   30304:	c3                   	ret    

00030305 <ide_writeback>:
   30305:	55                   	push   %ebp
   30306:	89 e5                	mov    %esp,%ebp
   30308:	53                   	push   %ebx
   30309:	83 ec 04             	sub    $0x4,%esp
   3030c:	e8 37 fe ff ff       	call   30148 <__x86.get_pc_thunk.bx>
   30311:	81 c3 ef cc 00 00    	add    $0xccef,%ebx
   30317:	8b 83 04 10 00 00    	mov    0x1004(%ebx),%eax
   3031d:	40                   	inc    %eax
   3031e:	89 83 04 10 00 00    	mov    %eax,0x1004(%ebx)
   30324:	8b 83 04 10 00 00    	mov    0x1004(%ebx),%eax
   3032a:	83 f8 64             	cmp    $0x64,%eax
   3032d:	75 0f                	jne    3033e <ide_writeback+0x39>
   3032f:	e8 f6 00 00 00       	call   3042a <cache_writeback>
   30334:	c7 83 04 10 00 00 00 	movl   $0x0,0x1004(%ebx)
   3033b:	00 00 00 
   3033e:	90                   	nop
   3033f:	83 c4 04             	add    $0x4,%esp
   30342:	5b                   	pop    %ebx
   30343:	5d                   	pop    %ebp
   30344:	c3                   	ret    

00030345 <ide_intr>:
   30345:	55                   	push   %ebp
   30346:	89 e5                	mov    %esp,%ebp
   30348:	e8 f7 fd ff ff       	call   30144 <__x86.get_pc_thunk.ax>
   3034d:	05 b3 cc 00 00       	add    $0xccb3,%eax
   30352:	c7 80 00 10 00 00 01 	movl   $0x1,0x1000(%eax)
   30359:	00 00 00 
   3035c:	90                   	nop
   3035d:	5d                   	pop    %ebp
   3035e:	c3                   	ret    

0003035f <clear_ide_intr>:
   3035f:	55                   	push   %ebp
   30360:	89 e5                	mov    %esp,%ebp
   30362:	e8 dd fd ff ff       	call   30144 <__x86.get_pc_thunk.ax>
   30367:	05 99 cc 00 00       	add    $0xcc99,%eax
   3036c:	c7 80 00 10 00 00 00 	movl   $0x0,0x1000(%eax)
   30373:	00 00 00 
   30376:	90                   	nop
   30377:	5d                   	pop    %ebp
   30378:	c3                   	ret    

00030379 <wait_ide_intr>:
   30379:	55                   	push   %ebp
   3037a:	89 e5                	mov    %esp,%ebp
   3037c:	53                   	push   %ebx
   3037d:	e8 c6 fd ff ff       	call   30148 <__x86.get_pc_thunk.bx>
   30382:	81 c3 7e cc 00 00    	add    $0xcc7e,%ebx
   30388:	eb 05                	jmp    3038f <wait_ide_intr+0x16>
   3038a:	e8 c9 fe ff ff       	call   30258 <wait_intr>
   3038f:	8b 83 00 10 00 00    	mov    0x1000(%ebx),%eax
   30395:	85 c0                	test   %eax,%eax
   30397:	74 f1                	je     3038a <wait_ide_intr+0x11>
   30399:	e8 c1 ff ff ff       	call   3035f <clear_ide_intr>
   3039e:	90                   	nop
   3039f:	5b                   	pop    %ebx
   303a0:	5d                   	pop    %ebp
   303a1:	c3                   	ret    

000303a2 <init_ide>:
   303a2:	55                   	push   %ebp
   303a3:	89 e5                	mov    %esp,%ebp
   303a5:	53                   	push   %ebx
   303a6:	83 ec 04             	sub    $0x4,%esp
   303a9:	e8 9a fd ff ff       	call   30148 <__x86.get_pc_thunk.bx>
   303ae:	81 c3 52 cc 00 00    	add    $0xcc52,%ebx
   303b4:	e8 2e 00 00 00       	call   303e7 <cache_init>
   303b9:	83 ec 08             	sub    $0x8,%esp
   303bc:	8d 83 05 33 ff ff    	lea    -0xccfb(%ebx),%eax
   303c2:	50                   	push   %eax
   303c3:	6a 00                	push   $0x0
   303c5:	e8 c0 06 00 00       	call   30a8a <add_irq_handle>
   303ca:	83 c4 10             	add    $0x10,%esp
   303cd:	83 ec 08             	sub    $0x8,%esp
   303d0:	8d 83 45 33 ff ff    	lea    -0xccbb(%ebx),%eax
   303d6:	50                   	push   %eax
   303d7:	6a 0e                	push   $0xe
   303d9:	e8 ac 06 00 00       	call   30a8a <add_irq_handle>
   303de:	83 c4 10             	add    $0x10,%esp
   303e1:	90                   	nop
   303e2:	8b 5d fc             	mov    -0x4(%ebp),%ebx
   303e5:	c9                   	leave  
   303e6:	c3                   	ret    

000303e7 <cache_init>:
   303e7:	55                   	push   %ebp
   303e8:	89 e5                	mov    %esp,%ebp
   303ea:	53                   	push   %ebx
   303eb:	83 ec 10             	sub    $0x10,%esp
   303ee:	e8 fd 01 00 00       	call   305f0 <__x86.get_pc_thunk.dx>
   303f3:	81 c2 0d cc 00 00    	add    $0xcc0d,%edx
   303f9:	c7 45 f8 00 00 00 00 	movl   $0x0,-0x8(%ebp)
   30400:	eb 1b                	jmp    3041d <cache_init+0x36>
   30402:	8b 4d f8             	mov    -0x8(%ebp),%ecx
   30405:	8d 9a 24 10 00 00    	lea    0x1024(%edx),%ebx
   3040b:	89 c8                	mov    %ecx,%eax
   3040d:	c1 e0 06             	shl    $0x6,%eax
   30410:	01 c8                	add    %ecx,%eax
   30412:	c1 e0 03             	shl    $0x3,%eax
   30415:	01 d8                	add    %ebx,%eax
   30417:	c6 00 00             	movb   $0x0,(%eax)
   3041a:	ff 45 f8             	incl   -0x8(%ebp)
   3041d:	83 7d f8 7f          	cmpl   $0x7f,-0x8(%ebp)
   30421:	7e df                	jle    30402 <cache_init+0x1b>
   30423:	90                   	nop
   30424:	83 c4 10             	add    $0x10,%esp
   30427:	5b                   	pop    %ebx
   30428:	5d                   	pop    %ebp
   30429:	c3                   	ret    

0003042a <cache_writeback>:
   3042a:	55                   	push   %ebp
   3042b:	89 e5                	mov    %esp,%ebp
   3042d:	53                   	push   %ebx
   3042e:	83 ec 14             	sub    $0x14,%esp
   30431:	e8 12 fd ff ff       	call   30148 <__x86.get_pc_thunk.bx>
   30436:	81 c3 ca cb 00 00    	add    $0xcbca,%ebx
   3043c:	c7 45 f4 00 00 00 00 	movl   $0x0,-0xc(%ebp)
   30443:	eb 72                	jmp    304b7 <cache_writeback+0x8d>
   30445:	8b 55 f4             	mov    -0xc(%ebp),%edx
   30448:	8d 8b 25 10 00 00    	lea    0x1025(%ebx),%ecx
   3044e:	89 d0                	mov    %edx,%eax
   30450:	c1 e0 06             	shl    $0x6,%eax
   30453:	01 d0                	add    %edx,%eax
   30455:	c1 e0 03             	shl    $0x3,%eax
   30458:	01 c8                	add    %ecx,%eax
   3045a:	8a 00                	mov    (%eax),%al
   3045c:	3c 01                	cmp    $0x1,%al
   3045e:	75 54                	jne    304b4 <cache_writeback+0x8a>
   30460:	8b 55 f4             	mov    -0xc(%ebp),%edx
   30463:	8d 8b 20 10 00 00    	lea    0x1020(%ebx),%ecx
   30469:	89 d0                	mov    %edx,%eax
   3046b:	c1 e0 06             	shl    $0x6,%eax
   3046e:	01 d0                	add    %edx,%eax
   30470:	c1 e0 03             	shl    $0x3,%eax
   30473:	01 c8                	add    %ecx,%eax
   30475:	8b 10                	mov    (%eax),%edx
   30477:	8b 4d f4             	mov    -0xc(%ebp),%ecx
   3047a:	89 c8                	mov    %ecx,%eax
   3047c:	c1 e0 06             	shl    $0x6,%eax
   3047f:	01 c8                	add    %ecx,%eax
   30481:	c1 e0 03             	shl    $0x3,%eax
   30484:	8d 8b 20 10 00 00    	lea    0x1020(%ebx),%ecx
   3048a:	01 c8                	add    %ecx,%eax
   3048c:	83 c0 06             	add    $0x6,%eax
   3048f:	83 ec 08             	sub    $0x8,%esp
   30492:	52                   	push   %edx
   30493:	50                   	push   %eax
   30494:	e8 52 03 00 00       	call   307eb <disk_do_write>
   30499:	83 c4 10             	add    $0x10,%esp
   3049c:	8b 55 f4             	mov    -0xc(%ebp),%edx
   3049f:	8d 8b 25 10 00 00    	lea    0x1025(%ebx),%ecx
   304a5:	89 d0                	mov    %edx,%eax
   304a7:	c1 e0 06             	shl    $0x6,%eax
   304aa:	01 d0                	add    %edx,%eax
   304ac:	c1 e0 03             	shl    $0x3,%eax
   304af:	01 c8                	add    %ecx,%eax
   304b1:	c6 00 00             	movb   $0x0,(%eax)
   304b4:	ff 45 f4             	incl   -0xc(%ebp)
   304b7:	83 7d f4 7f          	cmpl   $0x7f,-0xc(%ebp)
   304bb:	7e 88                	jle    30445 <cache_writeback+0x1b>
   304bd:	90                   	nop
   304be:	8b 5d fc             	mov    -0x4(%ebp),%ebx
   304c1:	c9                   	leave  
   304c2:	c3                   	ret    

000304c3 <cache_fetch>:
   304c3:	55                   	push   %ebp
   304c4:	89 e5                	mov    %esp,%ebp
   304c6:	53                   	push   %ebx
   304c7:	83 ec 14             	sub    $0x14,%esp
   304ca:	e8 79 fc ff ff       	call   30148 <__x86.get_pc_thunk.bx>
   304cf:	81 c3 31 cb 00 00    	add    $0xcb31,%ebx
   304d5:	8b 45 08             	mov    0x8(%ebp),%eax
   304d8:	83 e0 7f             	and    $0x7f,%eax
   304db:	89 c2                	mov    %eax,%edx
   304dd:	89 d0                	mov    %edx,%eax
   304df:	c1 e0 06             	shl    $0x6,%eax
   304e2:	01 d0                	add    %edx,%eax
   304e4:	c1 e0 03             	shl    $0x3,%eax
   304e7:	8d 93 20 10 00 00    	lea    0x1020(%ebx),%edx
   304ed:	01 d0                	add    %edx,%eax
   304ef:	89 45 f4             	mov    %eax,-0xc(%ebp)
   304f2:	8b 45 f4             	mov    -0xc(%ebp),%eax
   304f5:	8a 40 04             	mov    0x4(%eax),%al
   304f8:	3c 01                	cmp    $0x1,%al
   304fa:	75 0a                	jne    30506 <cache_fetch+0x43>
   304fc:	8b 45 f4             	mov    -0xc(%ebp),%eax
   304ff:	8b 00                	mov    (%eax),%eax
   30501:	39 45 08             	cmp    %eax,0x8(%ebp)
   30504:	74 57                	je     3055d <cache_fetch+0x9a>
   30506:	8b 45 f4             	mov    -0xc(%ebp),%eax
   30509:	8a 40 04             	mov    0x4(%eax),%al
   3050c:	3c 01                	cmp    $0x1,%al
   3050e:	75 22                	jne    30532 <cache_fetch+0x6f>
   30510:	8b 45 f4             	mov    -0xc(%ebp),%eax
   30513:	8a 40 05             	mov    0x5(%eax),%al
   30516:	3c 01                	cmp    $0x1,%al
   30518:	75 18                	jne    30532 <cache_fetch+0x6f>
   3051a:	8b 45 f4             	mov    -0xc(%ebp),%eax
   3051d:	8b 00                	mov    (%eax),%eax
   3051f:	8b 55 f4             	mov    -0xc(%ebp),%edx
   30522:	83 c2 06             	add    $0x6,%edx
   30525:	83 ec 08             	sub    $0x8,%esp
   30528:	50                   	push   %eax
   30529:	52                   	push   %edx
   3052a:	e8 bc 02 00 00       	call   307eb <disk_do_write>
   3052f:	83 c4 10             	add    $0x10,%esp
   30532:	8b 45 f4             	mov    -0xc(%ebp),%eax
   30535:	83 c0 06             	add    $0x6,%eax
   30538:	83 ec 08             	sub    $0x8,%esp
   3053b:	ff 75 08             	pushl  0x8(%ebp)
   3053e:	50                   	push   %eax
   3053f:	e8 3c 02 00 00       	call   30780 <disk_do_read>
   30544:	83 c4 10             	add    $0x10,%esp
   30547:	8b 45 f4             	mov    -0xc(%ebp),%eax
   3054a:	c6 40 04 01          	movb   $0x1,0x4(%eax)
   3054e:	8b 45 f4             	mov    -0xc(%ebp),%eax
   30551:	8b 55 08             	mov    0x8(%ebp),%edx
   30554:	89 10                	mov    %edx,(%eax)
   30556:	8b 45 f4             	mov    -0xc(%ebp),%eax
   30559:	c6 40 05 00          	movb   $0x0,0x5(%eax)
   3055d:	8b 45 f4             	mov    -0xc(%ebp),%eax
   30560:	8b 5d fc             	mov    -0x4(%ebp),%ebx
   30563:	c9                   	leave  
   30564:	c3                   	ret    

00030565 <read_byte>:
   30565:	55                   	push   %ebp
   30566:	89 e5                	mov    %esp,%ebp
   30568:	83 ec 18             	sub    $0x18,%esp
   3056b:	e8 d4 fb ff ff       	call   30144 <__x86.get_pc_thunk.ax>
   30570:	05 90 ca 00 00       	add    $0xca90,%eax
   30575:	8b 45 08             	mov    0x8(%ebp),%eax
   30578:	c1 e8 09             	shr    $0x9,%eax
   3057b:	89 45 f4             	mov    %eax,-0xc(%ebp)
   3057e:	83 ec 0c             	sub    $0xc,%esp
   30581:	ff 75 f4             	pushl  -0xc(%ebp)
   30584:	e8 3a ff ff ff       	call   304c3 <cache_fetch>
   30589:	83 c4 10             	add    $0x10,%esp
   3058c:	89 45 f0             	mov    %eax,-0x10(%ebp)
   3058f:	8b 45 08             	mov    0x8(%ebp),%eax
   30592:	25 ff 01 00 00       	and    $0x1ff,%eax
   30597:	89 c2                	mov    %eax,%edx
   30599:	8b 45 f0             	mov    -0x10(%ebp),%eax
   3059c:	8a 44 10 06          	mov    0x6(%eax,%edx,1),%al
   305a0:	c9                   	leave  
   305a1:	c3                   	ret    

000305a2 <write_byte>:
   305a2:	55                   	push   %ebp
   305a3:	89 e5                	mov    %esp,%ebp
   305a5:	83 ec 28             	sub    $0x28,%esp
   305a8:	e8 97 fb ff ff       	call   30144 <__x86.get_pc_thunk.ax>
   305ad:	05 53 ca 00 00       	add    $0xca53,%eax
   305b2:	8b 45 0c             	mov    0xc(%ebp),%eax
   305b5:	88 45 e4             	mov    %al,-0x1c(%ebp)
   305b8:	8b 45 08             	mov    0x8(%ebp),%eax
   305bb:	c1 e8 09             	shr    $0x9,%eax
   305be:	89 45 f4             	mov    %eax,-0xc(%ebp)
   305c1:	83 ec 0c             	sub    $0xc,%esp
   305c4:	ff 75 f4             	pushl  -0xc(%ebp)
   305c7:	e8 f7 fe ff ff       	call   304c3 <cache_fetch>
   305cc:	83 c4 10             	add    $0x10,%esp
   305cf:	89 45 f0             	mov    %eax,-0x10(%ebp)
   305d2:	8b 45 08             	mov    0x8(%ebp),%eax
   305d5:	25 ff 01 00 00       	and    $0x1ff,%eax
   305da:	89 c1                	mov    %eax,%ecx
   305dc:	8b 45 f0             	mov    -0x10(%ebp),%eax
   305df:	8a 55 e4             	mov    -0x1c(%ebp),%dl
   305e2:	88 54 08 06          	mov    %dl,0x6(%eax,%ecx,1)
   305e6:	8b 45 f0             	mov    -0x10(%ebp),%eax
   305e9:	c6 40 05 01          	movb   $0x1,0x5(%eax)
   305ed:	90                   	nop
   305ee:	c9                   	leave  
   305ef:	c3                   	ret    

000305f0 <__x86.get_pc_thunk.dx>:
   305f0:	8b 14 24             	mov    (%esp),%edx
   305f3:	c3                   	ret    

000305f4 <in_byte>:
   305f4:	55                   	push   %ebp
   305f5:	89 e5                	mov    %esp,%ebp
   305f7:	83 ec 14             	sub    $0x14,%esp
   305fa:	e8 45 fb ff ff       	call   30144 <__x86.get_pc_thunk.ax>
   305ff:	05 01 ca 00 00       	add    $0xca01,%eax
   30604:	8b 45 08             	mov    0x8(%ebp),%eax
   30607:	66 89 45 ec          	mov    %ax,-0x14(%ebp)
   3060b:	8b 45 ec             	mov    -0x14(%ebp),%eax
   3060e:	89 c2                	mov    %eax,%edx
   30610:	ec                   	in     (%dx),%al
   30611:	88 45 ff             	mov    %al,-0x1(%ebp)
   30614:	8a 45 ff             	mov    -0x1(%ebp),%al
   30617:	c9                   	leave  
   30618:	c3                   	ret    

00030619 <in_long>:
   30619:	55                   	push   %ebp
   3061a:	89 e5                	mov    %esp,%ebp
   3061c:	83 ec 14             	sub    $0x14,%esp
   3061f:	e8 20 fb ff ff       	call   30144 <__x86.get_pc_thunk.ax>
   30624:	05 dc c9 00 00       	add    $0xc9dc,%eax
   30629:	8b 45 08             	mov    0x8(%ebp),%eax
   3062c:	66 89 45 ec          	mov    %ax,-0x14(%ebp)
   30630:	8b 45 ec             	mov    -0x14(%ebp),%eax
   30633:	89 c2                	mov    %eax,%edx
   30635:	ed                   	in     (%dx),%eax
   30636:	89 45 fc             	mov    %eax,-0x4(%ebp)
   30639:	8b 45 fc             	mov    -0x4(%ebp),%eax
   3063c:	c9                   	leave  
   3063d:	c3                   	ret    

0003063e <out_byte>:
   3063e:	55                   	push   %ebp
   3063f:	89 e5                	mov    %esp,%ebp
   30641:	83 ec 08             	sub    $0x8,%esp
   30644:	e8 fb fa ff ff       	call   30144 <__x86.get_pc_thunk.ax>
   30649:	05 b7 c9 00 00       	add    $0xc9b7,%eax
   3064e:	8b 45 08             	mov    0x8(%ebp),%eax
   30651:	8b 55 0c             	mov    0xc(%ebp),%edx
   30654:	66 89 45 fc          	mov    %ax,-0x4(%ebp)
   30658:	88 d0                	mov    %dl,%al
   3065a:	88 45 f8             	mov    %al,-0x8(%ebp)
   3065d:	8a 45 f8             	mov    -0x8(%ebp),%al
   30660:	8b 55 fc             	mov    -0x4(%ebp),%edx
   30663:	ee                   	out    %al,(%dx)
   30664:	90                   	nop
   30665:	c9                   	leave  
   30666:	c3                   	ret    

00030667 <out_long>:
   30667:	55                   	push   %ebp
   30668:	89 e5                	mov    %esp,%ebp
   3066a:	83 ec 04             	sub    $0x4,%esp
   3066d:	e8 d2 fa ff ff       	call   30144 <__x86.get_pc_thunk.ax>
   30672:	05 8e c9 00 00       	add    $0xc98e,%eax
   30677:	8b 45 08             	mov    0x8(%ebp),%eax
   3067a:	66 89 45 fc          	mov    %ax,-0x4(%ebp)
   3067e:	8b 45 0c             	mov    0xc(%ebp),%eax
   30681:	8b 55 fc             	mov    -0x4(%ebp),%edx
   30684:	ef                   	out    %eax,(%dx)
   30685:	90                   	nop
   30686:	c9                   	leave  
   30687:	c3                   	ret    

00030688 <waitdisk>:
   30688:	55                   	push   %ebp
   30689:	89 e5                	mov    %esp,%ebp
   3068b:	e8 b4 fa ff ff       	call   30144 <__x86.get_pc_thunk.ax>
   30690:	05 70 c9 00 00       	add    $0xc970,%eax
   30695:	90                   	nop
   30696:	68 f7 01 00 00       	push   $0x1f7
   3069b:	e8 54 ff ff ff       	call   305f4 <in_byte>
   306a0:	83 c4 04             	add    $0x4,%esp
   306a3:	0f b6 c0             	movzbl %al,%eax
   306a6:	25 c0 00 00 00       	and    $0xc0,%eax
   306ab:	83 f8 40             	cmp    $0x40,%eax
   306ae:	75 e6                	jne    30696 <waitdisk+0xe>
   306b0:	90                   	nop
   306b1:	c9                   	leave  
   306b2:	c3                   	ret    

000306b3 <ide_prepare>:
   306b3:	55                   	push   %ebp
   306b4:	89 e5                	mov    %esp,%ebp
   306b6:	e8 89 fa ff ff       	call   30144 <__x86.get_pc_thunk.ax>
   306bb:	05 45 c9 00 00       	add    $0xc945,%eax
   306c0:	e8 c3 ff ff ff       	call   30688 <waitdisk>
   306c5:	6a 00                	push   $0x0
   306c7:	68 f1 01 00 00       	push   $0x1f1
   306cc:	e8 6d ff ff ff       	call   3063e <out_byte>
   306d1:	83 c4 08             	add    $0x8,%esp
   306d4:	6a 01                	push   $0x1
   306d6:	68 f2 01 00 00       	push   $0x1f2
   306db:	e8 5e ff ff ff       	call   3063e <out_byte>
   306e0:	83 c4 08             	add    $0x8,%esp
   306e3:	8b 45 08             	mov    0x8(%ebp),%eax
   306e6:	0f b6 c0             	movzbl %al,%eax
   306e9:	50                   	push   %eax
   306ea:	68 f3 01 00 00       	push   $0x1f3
   306ef:	e8 4a ff ff ff       	call   3063e <out_byte>
   306f4:	83 c4 08             	add    $0x8,%esp
   306f7:	8b 45 08             	mov    0x8(%ebp),%eax
   306fa:	c1 e8 08             	shr    $0x8,%eax
   306fd:	0f b6 c0             	movzbl %al,%eax
   30700:	50                   	push   %eax
   30701:	68 f4 01 00 00       	push   $0x1f4
   30706:	e8 33 ff ff ff       	call   3063e <out_byte>
   3070b:	83 c4 08             	add    $0x8,%esp
   3070e:	8b 45 08             	mov    0x8(%ebp),%eax
   30711:	c1 e8 10             	shr    $0x10,%eax
   30714:	0f b6 c0             	movzbl %al,%eax
   30717:	50                   	push   %eax
   30718:	68 f5 01 00 00       	push   $0x1f5
   3071d:	e8 1c ff ff ff       	call   3063e <out_byte>
   30722:	83 c4 08             	add    $0x8,%esp
   30725:	8b 45 08             	mov    0x8(%ebp),%eax
   30728:	c1 e8 18             	shr    $0x18,%eax
   3072b:	83 c8 e0             	or     $0xffffffe0,%eax
   3072e:	0f b6 c0             	movzbl %al,%eax
   30731:	50                   	push   %eax
   30732:	68 f6 01 00 00       	push   $0x1f6
   30737:	e8 02 ff ff ff       	call   3063e <out_byte>
   3073c:	83 c4 08             	add    $0x8,%esp
   3073f:	90                   	nop
   30740:	c9                   	leave  
   30741:	c3                   	ret    

00030742 <issue_read>:
   30742:	55                   	push   %ebp
   30743:	89 e5                	mov    %esp,%ebp
   30745:	e8 fa f9 ff ff       	call   30144 <__x86.get_pc_thunk.ax>
   3074a:	05 b6 c8 00 00       	add    $0xc8b6,%eax
   3074f:	6a 20                	push   $0x20
   30751:	68 f7 01 00 00       	push   $0x1f7
   30756:	e8 e3 fe ff ff       	call   3063e <out_byte>
   3075b:	83 c4 08             	add    $0x8,%esp
   3075e:	90                   	nop
   3075f:	c9                   	leave  
   30760:	c3                   	ret    

00030761 <issue_write>:
   30761:	55                   	push   %ebp
   30762:	89 e5                	mov    %esp,%ebp
   30764:	e8 db f9 ff ff       	call   30144 <__x86.get_pc_thunk.ax>
   30769:	05 97 c8 00 00       	add    $0xc897,%eax
   3076e:	6a 30                	push   $0x30
   30770:	68 f7 01 00 00       	push   $0x1f7
   30775:	e8 c4 fe ff ff       	call   3063e <out_byte>
   3077a:	83 c4 08             	add    $0x8,%esp
   3077d:	90                   	nop
   3077e:	c9                   	leave  
   3077f:	c3                   	ret    

00030780 <disk_do_read>:
   30780:	55                   	push   %ebp
   30781:	89 e5                	mov    %esp,%ebp
   30783:	53                   	push   %ebx
   30784:	83 ec 14             	sub    $0x14,%esp
   30787:	e8 bc f9 ff ff       	call   30148 <__x86.get_pc_thunk.bx>
   3078c:	81 c3 74 c8 00 00    	add    $0xc874,%ebx
   30792:	e8 c8 fb ff ff       	call   3035f <clear_ide_intr>
   30797:	83 ec 0c             	sub    $0xc,%esp
   3079a:	ff 75 0c             	pushl  0xc(%ebp)
   3079d:	e8 11 ff ff ff       	call   306b3 <ide_prepare>
   307a2:	83 c4 10             	add    $0x10,%esp
   307a5:	e8 98 ff ff ff       	call   30742 <issue_read>
   307aa:	e8 ca fb ff ff       	call   30379 <wait_ide_intr>
   307af:	c7 45 f4 00 00 00 00 	movl   $0x0,-0xc(%ebp)
   307b6:	eb 25                	jmp    307dd <disk_do_read+0x5d>
   307b8:	8b 45 f4             	mov    -0xc(%ebp),%eax
   307bb:	8d 14 85 00 00 00 00 	lea    0x0(,%eax,4),%edx
   307c2:	8b 45 08             	mov    0x8(%ebp),%eax
   307c5:	8d 1c 02             	lea    (%edx,%eax,1),%ebx
   307c8:	83 ec 0c             	sub    $0xc,%esp
   307cb:	68 f0 01 00 00       	push   $0x1f0
   307d0:	e8 44 fe ff ff       	call   30619 <in_long>
   307d5:	83 c4 10             	add    $0x10,%esp
   307d8:	89 03                	mov    %eax,(%ebx)
   307da:	ff 45 f4             	incl   -0xc(%ebp)
   307dd:	8b 45 f4             	mov    -0xc(%ebp),%eax
   307e0:	83 f8 7f             	cmp    $0x7f,%eax
   307e3:	76 d3                	jbe    307b8 <disk_do_read+0x38>
   307e5:	90                   	nop
   307e6:	8b 5d fc             	mov    -0x4(%ebp),%ebx
   307e9:	c9                   	leave  
   307ea:	c3                   	ret    

000307eb <disk_do_write>:
   307eb:	55                   	push   %ebp
   307ec:	89 e5                	mov    %esp,%ebp
   307ee:	83 ec 10             	sub    $0x10,%esp
   307f1:	e8 4e f9 ff ff       	call   30144 <__x86.get_pc_thunk.ax>
   307f6:	05 0a c8 00 00       	add    $0xc80a,%eax
   307fb:	ff 75 0c             	pushl  0xc(%ebp)
   307fe:	e8 b0 fe ff ff       	call   306b3 <ide_prepare>
   30803:	83 c4 04             	add    $0x4,%esp
   30806:	e8 56 ff ff ff       	call   30761 <issue_write>
   3080b:	c7 45 fc 00 00 00 00 	movl   $0x0,-0x4(%ebp)
   30812:	eb 22                	jmp    30836 <disk_do_write+0x4b>
   30814:	8b 45 fc             	mov    -0x4(%ebp),%eax
   30817:	8d 14 85 00 00 00 00 	lea    0x0(,%eax,4),%edx
   3081e:	8b 45 08             	mov    0x8(%ebp),%eax
   30821:	01 d0                	add    %edx,%eax
   30823:	8b 00                	mov    (%eax),%eax
   30825:	50                   	push   %eax
   30826:	68 f0 01 00 00       	push   $0x1f0
   3082b:	e8 37 fe ff ff       	call   30667 <out_long>
   30830:	83 c4 08             	add    $0x8,%esp
   30833:	ff 45 fc             	incl   -0x4(%ebp)
   30836:	8b 45 fc             	mov    -0x4(%ebp),%eax
   30839:	83 f8 7f             	cmp    $0x7f,%eax
   3083c:	76 d6                	jbe    30814 <disk_do_write+0x29>
   3083e:	90                   	nop
   3083f:	c9                   	leave  
   30840:	c3                   	ret    

00030841 <loader>:
   30841:	55                   	push   %ebp
   30842:	89 e5                	mov    %esp,%ebp
   30844:	56                   	push   %esi
   30845:	53                   	push   %ebx
   30846:	83 ec 10             	sub    $0x10,%esp
   30849:	e8 fa f8 ff ff       	call   30148 <__x86.get_pc_thunk.bx>
   3084e:	81 c3 b2 c7 00 00    	add    $0xc7b2,%ebx
   30854:	c7 45 f0 00 00 00 00 	movl   $0x0,-0x10(%ebp)
   3085b:	8d 83 cc c0 ff ff    	lea    -0x3f34(%ebx),%eax
   30861:	50                   	push   %eax
   30862:	6a 1d                	push   $0x1d
   30864:	8d 83 4c c0 ff ff    	lea    -0x3fb4(%ebx),%eax
   3086a:	50                   	push   %eax
   3086b:	8d 83 5c c0 ff ff    	lea    -0x3fa4(%ebx),%eax
   30871:	50                   	push   %eax
   30872:	e8 bf 01 00 00       	call   30a36 <printk>
   30877:	83 c4 10             	add    $0x10,%esp
   3087a:	8b 45 f0             	mov    -0x10(%ebp),%eax
   3087d:	8b 50 1c             	mov    0x1c(%eax),%edx
   30880:	8b 45 f0             	mov    -0x10(%ebp),%eax
   30883:	01 d0                	add    %edx,%eax
   30885:	89 45 f4             	mov    %eax,-0xc(%ebp)
   30888:	8b 45 f0             	mov    -0x10(%ebp),%eax
   3088b:	8b 40 2c             	mov    0x2c(%eax),%eax
   3088e:	0f b7 c0             	movzwl %ax,%eax
   30891:	c1 e0 05             	shl    $0x5,%eax
   30894:	89 c2                	mov    %eax,%edx
   30896:	8b 45 f4             	mov    -0xc(%ebp),%eax
   30899:	01 d0                	add    %edx,%eax
   3089b:	89 45 ec             	mov    %eax,-0x14(%ebp)
   3089e:	e9 a0 00 00 00       	jmp    30943 <loader+0x102>
   308a3:	8b 45 f4             	mov    -0xc(%ebp),%eax
   308a6:	8b 00                	mov    (%eax),%eax
   308a8:	83 f8 01             	cmp    $0x1,%eax
   308ab:	0f 85 8e 00 00 00    	jne    3093f <loader+0xfe>
   308b1:	8b 45 f4             	mov    -0xc(%ebp),%eax
   308b4:	8b 70 14             	mov    0x14(%eax),%esi
   308b7:	8b 45 f4             	mov    -0xc(%ebp),%eax
   308ba:	8b 48 10             	mov    0x10(%eax),%ecx
   308bd:	8b 45 f4             	mov    -0xc(%ebp),%eax
   308c0:	8b 50 08             	mov    0x8(%eax),%edx
   308c3:	8b 45 f4             	mov    -0xc(%ebp),%eax
   308c6:	8b 40 04             	mov    0x4(%eax),%eax
   308c9:	83 ec 0c             	sub    $0xc,%esp
   308cc:	56                   	push   %esi
   308cd:	51                   	push   %ecx
   308ce:	52                   	push   %edx
   308cf:	50                   	push   %eax
   308d0:	8d 83 98 c0 ff ff    	lea    -0x3f68(%ebx),%eax
   308d6:	50                   	push   %eax
   308d7:	e8 5a 01 00 00       	call   30a36 <printk>
   308dc:	83 c4 20             	add    $0x20,%esp
   308df:	8b 45 f4             	mov    -0xc(%ebp),%eax
   308e2:	8b 40 10             	mov    0x10(%eax),%eax
   308e5:	8b 55 f4             	mov    -0xc(%ebp),%edx
   308e8:	8b 4a 04             	mov    0x4(%edx),%ecx
   308eb:	8b 55 f0             	mov    -0x10(%ebp),%edx
   308ee:	01 d1                	add    %edx,%ecx
   308f0:	8b 55 f4             	mov    -0xc(%ebp),%edx
   308f3:	8b 52 08             	mov    0x8(%edx),%edx
   308f6:	83 ec 04             	sub    $0x4,%esp
   308f9:	50                   	push   %eax
   308fa:	51                   	push   %ecx
   308fb:	52                   	push   %edx
   308fc:	e8 03 14 00 00       	call   31d04 <memcpy>
   30901:	83 c4 10             	add    $0x10,%esp
   30904:	8b 45 f4             	mov    -0xc(%ebp),%eax
   30907:	8b 50 10             	mov    0x10(%eax),%edx
   3090a:	8b 45 f4             	mov    -0xc(%ebp),%eax
   3090d:	8b 40 14             	mov    0x14(%eax),%eax
   30910:	39 c2                	cmp    %eax,%edx
   30912:	73 2b                	jae    3093f <loader+0xfe>
   30914:	8b 45 f4             	mov    -0xc(%ebp),%eax
   30917:	8b 50 14             	mov    0x14(%eax),%edx
   3091a:	8b 45 f4             	mov    -0xc(%ebp),%eax
   3091d:	8b 40 10             	mov    0x10(%eax),%eax
   30920:	29 c2                	sub    %eax,%edx
   30922:	8b 45 f4             	mov    -0xc(%ebp),%eax
   30925:	8b 48 10             	mov    0x10(%eax),%ecx
   30928:	8b 45 f4             	mov    -0xc(%ebp),%eax
   3092b:	8b 40 08             	mov    0x8(%eax),%eax
   3092e:	01 c8                	add    %ecx,%eax
   30930:	83 ec 04             	sub    $0x4,%esp
   30933:	52                   	push   %edx
   30934:	6a 00                	push   $0x0
   30936:	50                   	push   %eax
   30937:	e8 10 14 00 00       	call   31d4c <memset>
   3093c:	83 c4 10             	add    $0x10,%esp
   3093f:	83 45 f4 20          	addl   $0x20,-0xc(%ebp)
   30943:	8b 45 f4             	mov    -0xc(%ebp),%eax
   30946:	3b 45 ec             	cmp    -0x14(%ebp),%eax
   30949:	0f 82 54 ff ff ff    	jb     308a3 <loader+0x62>
   3094f:	8b 45 f0             	mov    -0x10(%ebp),%eax
   30952:	8b 40 18             	mov    0x18(%eax),%eax
   30955:	89 45 e8             	mov    %eax,-0x18(%ebp)
   30958:	8b 45 e8             	mov    -0x18(%ebp),%eax
   3095b:	8d 65 f8             	lea    -0x8(%ebp),%esp
   3095e:	5b                   	pop    %ebx
   3095f:	5e                   	pop    %esi
   30960:	5d                   	pop    %ebp
   30961:	c3                   	ret    

00030962 <sbrk>:
   30962:	55                   	push   %ebp
   30963:	89 e5                	mov    %esp,%ebp
   30965:	53                   	push   %ebx
   30966:	83 ec 04             	sub    $0x4,%esp
   30969:	e8 d6 f7 ff ff       	call   30144 <__x86.get_pc_thunk.ax>
   3096e:	05 92 c6 00 00       	add    $0xc692,%eax
   30973:	83 ec 0c             	sub    $0xc,%esp
   30976:	8d 90 d4 c0 ff ff    	lea    -0x3f2c(%eax),%edx
   3097c:	52                   	push   %edx
   3097d:	8d 90 34 c1 ff ff    	lea    -0x3ecc(%eax),%edx
   30983:	52                   	push   %edx
   30984:	6a 09                	push   $0x9
   30986:	8d 90 d6 c0 ff ff    	lea    -0x3f2a(%eax),%edx
   3098c:	52                   	push   %edx
   3098d:	8d 90 e8 c0 ff ff    	lea    -0x3f18(%eax),%edx
   30993:	52                   	push   %edx
   30994:	89 c3                	mov    %eax,%ebx
   30996:	e8 9b 00 00 00       	call   30a36 <printk>
   3099b:	83 c4 20             	add    $0x20,%esp
   3099e:	b8 01 00 00 00       	mov    $0x1,%eax
   309a3:	82                   	nemu_trap 
   309a4:	b8 00 00 00 00       	mov    $0x0,%eax
   309a9:	8b 5d fc             	mov    -0x4(%ebp),%ebx
   309ac:	c9                   	leave  
   309ad:	c3                   	ret    

000309ae <in_byte>:
   309ae:	55                   	push   %ebp
   309af:	89 e5                	mov    %esp,%ebp
   309b1:	83 ec 14             	sub    $0x14,%esp
   309b4:	e8 8b f7 ff ff       	call   30144 <__x86.get_pc_thunk.ax>
   309b9:	05 47 c6 00 00       	add    $0xc647,%eax
   309be:	8b 45 08             	mov    0x8(%ebp),%eax
   309c1:	66 89 45 ec          	mov    %ax,-0x14(%ebp)
   309c5:	8b 45 ec             	mov    -0x14(%ebp),%eax
   309c8:	89 c2                	mov    %eax,%edx
   309ca:	ec                   	in     (%dx),%al
   309cb:	88 45 ff             	mov    %al,-0x1(%ebp)
   309ce:	8a 45 ff             	mov    -0x1(%ebp),%al
   309d1:	c9                   	leave  
   309d2:	c3                   	ret    

000309d3 <init_serial>:
   309d3:	55                   	push   %ebp
   309d4:	89 e5                	mov    %esp,%ebp
   309d6:	e8 69 f7 ff ff       	call   30144 <__x86.get_pc_thunk.ax>
   309db:	05 25 c6 00 00       	add    $0xc625,%eax
   309e0:	90                   	nop
   309e1:	5d                   	pop    %ebp
   309e2:	c3                   	ret    

000309e3 <serial_idle>:
   309e3:	55                   	push   %ebp
   309e4:	89 e5                	mov    %esp,%ebp
   309e6:	e8 59 f7 ff ff       	call   30144 <__x86.get_pc_thunk.ax>
   309eb:	05 15 c6 00 00       	add    $0xc615,%eax
   309f0:	68 fd 03 00 00       	push   $0x3fd
   309f5:	e8 b4 ff ff ff       	call   309ae <in_byte>
   309fa:	83 c4 04             	add    $0x4,%esp
   309fd:	0f b6 c0             	movzbl %al,%eax
   30a00:	83 e0 20             	and    $0x20,%eax
   30a03:	85 c0                	test   %eax,%eax
   30a05:	0f 95 c0             	setne  %al
   30a08:	0f b6 c0             	movzbl %al,%eax
   30a0b:	c9                   	leave  
   30a0c:	c3                   	ret    

00030a0d <serial_printc>:
   30a0d:	55                   	push   %ebp
   30a0e:	89 e5                	mov    %esp,%ebp
   30a10:	83 ec 04             	sub    $0x4,%esp
   30a13:	e8 2c f7 ff ff       	call   30144 <__x86.get_pc_thunk.ax>
   30a18:	05 e8 c5 00 00       	add    $0xc5e8,%eax
   30a1d:	8b 45 08             	mov    0x8(%ebp),%eax
   30a20:	88 45 fc             	mov    %al,-0x4(%ebp)
   30a23:	90                   	nop
   30a24:	e8 ba ff ff ff       	call   309e3 <serial_idle>
   30a29:	85 c0                	test   %eax,%eax
   30a2b:	74 f7                	je     30a24 <serial_printc+0x17>
   30a2d:	b8 01 00 00 00       	mov    $0x1,%eax
   30a32:	82                   	nemu_trap 
   30a33:	90                   	nop
   30a34:	c9                   	leave  
   30a35:	c3                   	ret    

00030a36 <printk>:
   30a36:	55                   	push   %ebp
   30a37:	89 e5                	mov    %esp,%ebp
   30a39:	53                   	push   %ebx
   30a3a:	83 ec 14             	sub    $0x14,%esp
   30a3d:	e8 06 f7 ff ff       	call   30148 <__x86.get_pc_thunk.bx>
   30a42:	81 c3 be c5 00 00    	add    $0xc5be,%ebx
   30a48:	8d 45 0c             	lea    0xc(%ebp),%eax
   30a4b:	89 45 f4             	mov    %eax,-0xc(%ebp)
   30a4e:	8b 45 08             	mov    0x8(%ebp),%eax
   30a51:	ff 75 f4             	pushl  -0xc(%ebp)
   30a54:	50                   	push   %eax
   30a55:	68 00 01 00 00       	push   $0x100
   30a5a:	8d 83 20 14 01 00    	lea    0x11420(%ebx),%eax
   30a60:	50                   	push   %eax
   30a61:	e8 0a 14 00 00       	call   31e70 <vsnprintf>
   30a66:	83 c4 10             	add    $0x10,%esp
   30a69:	89 45 f0             	mov    %eax,-0x10(%ebp)
   30a6c:	8b 45 f0             	mov    -0x10(%ebp),%eax
   30a6f:	83 ec 04             	sub    $0x4,%esp
   30a72:	50                   	push   %eax
   30a73:	8d 83 20 14 01 00    	lea    0x11420(%ebx),%eax
   30a79:	50                   	push   %eax
   30a7a:	6a 01                	push   $0x1
   30a7c:	e8 b1 07 00 00       	call   31232 <fs_write>
   30a81:	83 c4 10             	add    $0x10,%esp
   30a84:	90                   	nop
   30a85:	8b 5d fc             	mov    -0x4(%ebp),%ebx
   30a88:	c9                   	leave  
   30a89:	c3                   	ret    

00030a8a <add_irq_handle>:
   30a8a:	55                   	push   %ebp
   30a8b:	89 e5                	mov    %esp,%ebp
   30a8d:	53                   	push   %ebx
   30a8e:	83 ec 14             	sub    $0x14,%esp
   30a91:	e8 b2 f6 ff ff       	call   30148 <__x86.get_pc_thunk.bx>
   30a96:	81 c3 6a c5 00 00    	add    $0xc56a,%ebx
   30a9c:	83 7d 08 0f          	cmpl   $0xf,0x8(%ebp)
   30aa0:	7e 2f                	jle    30ad1 <add_irq_handle+0x47>
   30aa2:	83 ec 0c             	sub    $0xc,%esp
   30aa5:	8d 83 3c c1 ff ff    	lea    -0x3ec4(%ebx),%eax
   30aab:	50                   	push   %eax
   30aac:	8d 83 28 c3 ff ff    	lea    -0x3cd8(%ebx),%eax
   30ab2:	50                   	push   %eax
   30ab3:	6a 17                	push   $0x17
   30ab5:	8d 83 4f c1 ff ff    	lea    -0x3eb1(%ebx),%eax
   30abb:	50                   	push   %eax
   30abc:	8d 83 64 c1 ff ff    	lea    -0x3e9c(%ebx),%eax
   30ac2:	50                   	push   %eax
   30ac3:	e8 6e ff ff ff       	call   30a36 <printk>
   30ac8:	83 c4 20             	add    $0x20,%esp
   30acb:	b8 01 00 00 00       	mov    $0x1,%eax
   30ad0:	82                   	nemu_trap 
   30ad1:	8b 83 60 16 01 00    	mov    0x11660(%ebx),%eax
   30ad7:	83 f8 20             	cmp    $0x20,%eax
   30ada:	7e 2f                	jle    30b0b <add_irq_handle+0x81>
   30adc:	83 ec 0c             	sub    $0xc,%esp
   30adf:	8d 83 ae c1 ff ff    	lea    -0x3e52(%ebx),%eax
   30ae5:	50                   	push   %eax
   30ae6:	8d 83 28 c3 ff ff    	lea    -0x3cd8(%ebx),%eax
   30aec:	50                   	push   %eax
   30aed:	6a 18                	push   $0x18
   30aef:	8d 83 4f c1 ff ff    	lea    -0x3eb1(%ebx),%eax
   30af5:	50                   	push   %eax
   30af6:	8d 83 64 c1 ff ff    	lea    -0x3e9c(%ebx),%eax
   30afc:	50                   	push   %eax
   30afd:	e8 34 ff ff ff       	call   30a36 <printk>
   30b02:	83 c4 20             	add    $0x20,%esp
   30b05:	b8 01 00 00 00       	mov    $0x1,%eax
   30b0a:	82                   	nemu_trap 
   30b0b:	8b 83 60 16 01 00    	mov    0x11660(%ebx),%eax
   30b11:	8d 50 01             	lea    0x1(%eax),%edx
   30b14:	89 93 60 16 01 00    	mov    %edx,0x11660(%ebx)
   30b1a:	8d 14 c5 00 00 00 00 	lea    0x0(,%eax,8),%edx
   30b21:	8d 83 20 15 01 00    	lea    0x11520(%ebx),%eax
   30b27:	01 d0                	add    %edx,%eax
   30b29:	89 45 f4             	mov    %eax,-0xc(%ebp)
   30b2c:	8b 45 f4             	mov    -0xc(%ebp),%eax
   30b2f:	8b 55 0c             	mov    0xc(%ebp),%edx
   30b32:	89 10                	mov    %edx,(%eax)
   30b34:	8b 45 08             	mov    0x8(%ebp),%eax
   30b37:	8b 94 83 20 16 01 00 	mov    0x11620(%ebx,%eax,4),%edx
   30b3e:	8b 45 f4             	mov    -0xc(%ebp),%eax
   30b41:	89 50 04             	mov    %edx,0x4(%eax)
   30b44:	8b 45 08             	mov    0x8(%ebp),%eax
   30b47:	8b 55 f4             	mov    -0xc(%ebp),%edx
   30b4a:	89 94 83 20 16 01 00 	mov    %edx,0x11620(%ebx,%eax,4)
   30b51:	90                   	nop
   30b52:	8b 5d fc             	mov    -0x4(%ebp),%ebx
   30b55:	c9                   	leave  
   30b56:	c3                   	ret    

00030b57 <irq_handle>:
   30b57:	55                   	push   %ebp
   30b58:	89 e5                	mov    %esp,%ebp
   30b5a:	53                   	push   %ebx
   30b5b:	83 ec 14             	sub    $0x14,%esp
   30b5e:	e8 e5 f5 ff ff       	call   30148 <__x86.get_pc_thunk.bx>
   30b63:	81 c3 9d c4 00 00    	add    $0xc49d,%ebx
   30b69:	8b 45 08             	mov    0x8(%ebp),%eax
   30b6c:	8b 40 20             	mov    0x20(%eax),%eax
   30b6f:	89 45 f0             	mov    %eax,-0x10(%ebp)
   30b72:	83 7d f0 00          	cmpl   $0x0,-0x10(%ebp)
   30b76:	79 2a                	jns    30ba2 <irq_handle+0x4b>
   30b78:	8d 83 38 c3 ff ff    	lea    -0x3cc8(%ebx),%eax
   30b7e:	50                   	push   %eax
   30b7f:	6a 27                	push   $0x27
   30b81:	8d 83 4f c1 ff ff    	lea    -0x3eb1(%ebx),%eax
   30b87:	50                   	push   %eax
   30b88:	8d 83 cc c1 ff ff    	lea    -0x3e34(%ebx),%eax
   30b8e:	50                   	push   %eax
   30b8f:	e8 a2 fe ff ff       	call   30a36 <printk>
   30b94:	83 c4 10             	add    $0x10,%esp
   30b97:	b8 01 00 00 00       	mov    $0x1,%eax
   30b9c:	82                   	nemu_trap 
   30b9d:	e9 f9 00 00 00       	jmp    30c9b <irq_handle+0x144>
   30ba2:	81 7d f0 80 00 00 00 	cmpl   $0x80,-0x10(%ebp)
   30ba9:	75 13                	jne    30bbe <irq_handle+0x67>
   30bab:	83 ec 0c             	sub    $0xc,%esp
   30bae:	ff 75 08             	pushl  0x8(%ebp)
   30bb1:	e8 d8 08 00 00       	call   3148e <do_syscall>
   30bb6:	83 c4 10             	add    $0x10,%esp
   30bb9:	e9 dd 00 00 00       	jmp    30c9b <irq_handle+0x144>
   30bbe:	81 7d f0 e7 03 00 00 	cmpl   $0x3e7,-0x10(%ebp)
   30bc5:	7f 37                	jg     30bfe <irq_handle+0xa7>
   30bc7:	8b 45 08             	mov    0x8(%ebp),%eax
   30bca:	8b 40 28             	mov    0x28(%eax),%eax
   30bcd:	83 ec 08             	sub    $0x8,%esp
   30bd0:	50                   	push   %eax
   30bd1:	ff 75 f0             	pushl  -0x10(%ebp)
   30bd4:	8d 83 38 c3 ff ff    	lea    -0x3cc8(%ebx),%eax
   30bda:	50                   	push   %eax
   30bdb:	6a 2f                	push   $0x2f
   30bdd:	8d 83 4f c1 ff ff    	lea    -0x3eb1(%ebx),%eax
   30be3:	50                   	push   %eax
   30be4:	8d 83 18 c2 ff ff    	lea    -0x3de8(%ebx),%eax
   30bea:	50                   	push   %eax
   30beb:	e8 46 fe ff ff       	call   30a36 <printk>
   30bf0:	83 c4 20             	add    $0x20,%esp
   30bf3:	b8 01 00 00 00       	mov    $0x1,%eax
   30bf8:	82                   	nemu_trap 
   30bf9:	e9 9d 00 00 00       	jmp    30c9b <irq_handle+0x144>
   30bfe:	81 7d f0 e7 03 00 00 	cmpl   $0x3e7,-0x10(%ebp)
   30c05:	0f 8e 90 00 00 00    	jle    30c9b <irq_handle+0x144>
   30c0b:	8b 45 f0             	mov    -0x10(%ebp),%eax
   30c0e:	2d e8 03 00 00       	sub    $0x3e8,%eax
   30c13:	89 45 ec             	mov    %eax,-0x14(%ebp)
   30c16:	83 7d ec 0f          	cmpl   $0xf,-0x14(%ebp)
   30c1a:	7e 2f                	jle    30c4b <irq_handle+0xf4>
   30c1c:	83 ec 0c             	sub    $0xc,%esp
   30c1f:	8d 83 72 c2 ff ff    	lea    -0x3d8e(%ebx),%eax
   30c25:	50                   	push   %eax
   30c26:	8d 83 38 c3 ff ff    	lea    -0x3cc8(%ebx),%eax
   30c2c:	50                   	push   %eax
   30c2d:	6a 34                	push   $0x34
   30c2f:	8d 83 4f c1 ff ff    	lea    -0x3eb1(%ebx),%eax
   30c35:	50                   	push   %eax
   30c36:	8d 83 64 c1 ff ff    	lea    -0x3e9c(%ebx),%eax
   30c3c:	50                   	push   %eax
   30c3d:	e8 f4 fd ff ff       	call   30a36 <printk>
   30c42:	83 c4 20             	add    $0x20,%esp
   30c45:	b8 01 00 00 00       	mov    $0x1,%eax
   30c4a:	82                   	nemu_trap 
   30c4b:	83 7d ec 00          	cmpl   $0x0,-0x14(%ebp)
   30c4f:	75 25                	jne    30c76 <irq_handle+0x11f>
   30c51:	8d 83 38 c3 ff ff    	lea    -0x3cc8(%ebx),%eax
   30c57:	50                   	push   %eax
   30c58:	6a 36                	push   $0x36
   30c5a:	8d 83 4f c1 ff ff    	lea    -0x3eb1(%ebx),%eax
   30c60:	50                   	push   %eax
   30c61:	8d 83 88 c2 ff ff    	lea    -0x3d78(%ebx),%eax
   30c67:	50                   	push   %eax
   30c68:	e8 c9 fd ff ff       	call   30a36 <printk>
   30c6d:	83 c4 10             	add    $0x10,%esp
   30c70:	b8 01 00 00 00       	mov    $0x1,%eax
   30c75:	82                   	nemu_trap 
   30c76:	8b 45 ec             	mov    -0x14(%ebp),%eax
   30c79:	8b 84 83 20 16 01 00 	mov    0x11620(%ebx,%eax,4),%eax
   30c80:	89 45 f4             	mov    %eax,-0xc(%ebp)
   30c83:	eb 10                	jmp    30c95 <irq_handle+0x13e>
   30c85:	8b 45 f4             	mov    -0xc(%ebp),%eax
   30c88:	8b 00                	mov    (%eax),%eax
   30c8a:	ff d0                	call   *%eax
   30c8c:	8b 45 f4             	mov    -0xc(%ebp),%eax
   30c8f:	8b 40 04             	mov    0x4(%eax),%eax
   30c92:	89 45 f4             	mov    %eax,-0xc(%ebp)
   30c95:	83 7d f4 00          	cmpl   $0x0,-0xc(%ebp)
   30c99:	75 ea                	jne    30c85 <irq_handle+0x12e>
   30c9b:	90                   	nop
   30c9c:	8b 5d fc             	mov    -0x4(%ebp),%ebx
   30c9f:	c9                   	leave  
   30ca0:	c3                   	ret    

00030ca1 <out_byte>:
   30ca1:	55                   	push   %ebp
   30ca2:	89 e5                	mov    %esp,%ebp
   30ca4:	83 ec 08             	sub    $0x8,%esp
   30ca7:	e8 98 f4 ff ff       	call   30144 <__x86.get_pc_thunk.ax>
   30cac:	05 54 c3 00 00       	add    $0xc354,%eax
   30cb1:	8b 45 08             	mov    0x8(%ebp),%eax
   30cb4:	8b 55 0c             	mov    0xc(%ebp),%edx
   30cb7:	66 89 45 fc          	mov    %ax,-0x4(%ebp)
   30cbb:	88 d0                	mov    %dl,%al
   30cbd:	88 45 f8             	mov    %al,-0x8(%ebp)
   30cc0:	8a 45 f8             	mov    -0x8(%ebp),%al
   30cc3:	8b 55 fc             	mov    -0x4(%ebp),%edx
   30cc6:	ee                   	out    %al,(%dx)
   30cc7:	90                   	nop
   30cc8:	c9                   	leave  
   30cc9:	c3                   	ret    

00030cca <init_i8259>:
   30cca:	55                   	push   %ebp
   30ccb:	89 e5                	mov    %esp,%ebp
   30ccd:	e8 72 f4 ff ff       	call   30144 <__x86.get_pc_thunk.ax>
   30cd2:	05 2e c3 00 00       	add    $0xc32e,%eax
   30cd7:	68 ff 00 00 00       	push   $0xff
   30cdc:	6a 21                	push   $0x21
   30cde:	e8 be ff ff ff       	call   30ca1 <out_byte>
   30ce3:	83 c4 08             	add    $0x8,%esp
   30ce6:	68 ff 00 00 00       	push   $0xff
   30ceb:	68 a1 00 00 00       	push   $0xa1
   30cf0:	e8 ac ff ff ff       	call   30ca1 <out_byte>
   30cf5:	83 c4 08             	add    $0x8,%esp
   30cf8:	6a 11                	push   $0x11
   30cfa:	6a 20                	push   $0x20
   30cfc:	e8 a0 ff ff ff       	call   30ca1 <out_byte>
   30d01:	83 c4 08             	add    $0x8,%esp
   30d04:	6a 20                	push   $0x20
   30d06:	6a 21                	push   $0x21
   30d08:	e8 94 ff ff ff       	call   30ca1 <out_byte>
   30d0d:	83 c4 08             	add    $0x8,%esp
   30d10:	6a 04                	push   $0x4
   30d12:	6a 21                	push   $0x21
   30d14:	e8 88 ff ff ff       	call   30ca1 <out_byte>
   30d19:	83 c4 08             	add    $0x8,%esp
   30d1c:	6a 03                	push   $0x3
   30d1e:	6a 21                	push   $0x21
   30d20:	e8 7c ff ff ff       	call   30ca1 <out_byte>
   30d25:	83 c4 08             	add    $0x8,%esp
   30d28:	6a 11                	push   $0x11
   30d2a:	68 a0 00 00 00       	push   $0xa0
   30d2f:	e8 6d ff ff ff       	call   30ca1 <out_byte>
   30d34:	83 c4 08             	add    $0x8,%esp
   30d37:	6a 28                	push   $0x28
   30d39:	68 a1 00 00 00       	push   $0xa1
   30d3e:	e8 5e ff ff ff       	call   30ca1 <out_byte>
   30d43:	83 c4 08             	add    $0x8,%esp
   30d46:	6a 02                	push   $0x2
   30d48:	68 a1 00 00 00       	push   $0xa1
   30d4d:	e8 4f ff ff ff       	call   30ca1 <out_byte>
   30d52:	83 c4 08             	add    $0x8,%esp
   30d55:	6a 03                	push   $0x3
   30d57:	68 a1 00 00 00       	push   $0xa1
   30d5c:	e8 40 ff ff ff       	call   30ca1 <out_byte>
   30d61:	83 c4 08             	add    $0x8,%esp
   30d64:	6a 68                	push   $0x68
   30d66:	6a 20                	push   $0x20
   30d68:	e8 34 ff ff ff       	call   30ca1 <out_byte>
   30d6d:	83 c4 08             	add    $0x8,%esp
   30d70:	6a 0a                	push   $0xa
   30d72:	6a 20                	push   $0x20
   30d74:	e8 28 ff ff ff       	call   30ca1 <out_byte>
   30d79:	83 c4 08             	add    $0x8,%esp
   30d7c:	6a 68                	push   $0x68
   30d7e:	68 a0 00 00 00       	push   $0xa0
   30d83:	e8 19 ff ff ff       	call   30ca1 <out_byte>
   30d88:	83 c4 08             	add    $0x8,%esp
   30d8b:	6a 0a                	push   $0xa
   30d8d:	68 a0 00 00 00       	push   $0xa0
   30d92:	e8 0a ff ff ff       	call   30ca1 <out_byte>
   30d97:	83 c4 08             	add    $0x8,%esp
   30d9a:	90                   	nop
   30d9b:	c9                   	leave  
   30d9c:	c3                   	ret    

00030d9d <write_idtr>:
   30d9d:	55                   	push   %ebp
   30d9e:	89 e5                	mov    %esp,%ebp
   30da0:	e8 9f f3 ff ff       	call   30144 <__x86.get_pc_thunk.ax>
   30da5:	05 5b c2 00 00       	add    $0xc25b,%eax
   30daa:	8b 55 0c             	mov    0xc(%ebp),%edx
   30dad:	4a                   	dec    %edx
   30dae:	66 89 90 80 1e 01 00 	mov    %dx,0x11e80(%eax)
   30db5:	8b 55 08             	mov    0x8(%ebp),%edx
   30db8:	66 89 90 82 1e 01 00 	mov    %dx,0x11e82(%eax)
   30dbf:	8b 55 08             	mov    0x8(%ebp),%edx
   30dc2:	c1 ea 10             	shr    $0x10,%edx
   30dc5:	66 89 90 84 1e 01 00 	mov    %dx,0x11e84(%eax)
   30dcc:	8d 80 80 1e 01 00    	lea    0x11e80(%eax),%eax
   30dd2:	0f 01 18             	lidtl  (%eax)
   30dd5:	90                   	nop
   30dd6:	5d                   	pop    %ebp
   30dd7:	c3                   	ret    

00030dd8 <sti>:
   30dd8:	55                   	push   %ebp
   30dd9:	89 e5                	mov    %esp,%ebp
   30ddb:	e8 64 f3 ff ff       	call   30144 <__x86.get_pc_thunk.ax>
   30de0:	05 20 c2 00 00       	add    $0xc220,%eax
   30de5:	fb                   	sti    
   30de6:	90                   	nop
   30de7:	5d                   	pop    %ebp
   30de8:	c3                   	ret    

00030de9 <set_intr>:
   30de9:	55                   	push   %ebp
   30dea:	89 e5                	mov    %esp,%ebp
   30dec:	e8 53 f3 ff ff       	call   30144 <__x86.get_pc_thunk.ax>
   30df1:	05 0f c2 00 00       	add    $0xc20f,%eax
   30df6:	8b 45 10             	mov    0x10(%ebp),%eax
   30df9:	8b 55 08             	mov    0x8(%ebp),%edx
   30dfc:	66 89 02             	mov    %ax,(%edx)
   30dff:	8b 45 0c             	mov    0xc(%ebp),%eax
   30e02:	8b 55 08             	mov    0x8(%ebp),%edx
   30e05:	66 89 42 02          	mov    %ax,0x2(%edx)
   30e09:	8b 45 08             	mov    0x8(%ebp),%eax
   30e0c:	c6 40 04 00          	movb   $0x0,0x4(%eax)
   30e10:	8b 45 08             	mov    0x8(%ebp),%eax
   30e13:	8a 50 05             	mov    0x5(%eax),%dl
   30e16:	83 e2 f0             	and    $0xfffffff0,%edx
   30e19:	83 ca 0e             	or     $0xe,%edx
   30e1c:	88 50 05             	mov    %dl,0x5(%eax)
   30e1f:	8b 45 08             	mov    0x8(%ebp),%eax
   30e22:	8a 50 05             	mov    0x5(%eax),%dl
   30e25:	83 e2 ef             	and    $0xffffffef,%edx
   30e28:	88 50 05             	mov    %dl,0x5(%eax)
   30e2b:	8b 45 14             	mov    0x14(%ebp),%eax
   30e2e:	88 c2                	mov    %al,%dl
   30e30:	83 e2 03             	and    $0x3,%edx
   30e33:	8b 45 08             	mov    0x8(%ebp),%eax
   30e36:	83 e2 03             	and    $0x3,%edx
   30e39:	88 d1                	mov    %dl,%cl
   30e3b:	c1 e1 05             	shl    $0x5,%ecx
   30e3e:	8a 50 05             	mov    0x5(%eax),%dl
   30e41:	83 e2 9f             	and    $0xffffff9f,%edx
   30e44:	09 ca                	or     %ecx,%edx
   30e46:	88 50 05             	mov    %dl,0x5(%eax)
   30e49:	8b 45 08             	mov    0x8(%ebp),%eax
   30e4c:	8a 50 05             	mov    0x5(%eax),%dl
   30e4f:	83 ca 80             	or     $0xffffff80,%edx
   30e52:	88 50 05             	mov    %dl,0x5(%eax)
   30e55:	8b 45 10             	mov    0x10(%ebp),%eax
   30e58:	c1 e8 10             	shr    $0x10,%eax
   30e5b:	8b 55 08             	mov    0x8(%ebp),%edx
   30e5e:	66 89 42 06          	mov    %ax,0x6(%edx)
   30e62:	90                   	nop
   30e63:	5d                   	pop    %ebp
   30e64:	c3                   	ret    

00030e65 <set_trap>:
   30e65:	55                   	push   %ebp
   30e66:	89 e5                	mov    %esp,%ebp
   30e68:	e8 d7 f2 ff ff       	call   30144 <__x86.get_pc_thunk.ax>
   30e6d:	05 93 c1 00 00       	add    $0xc193,%eax
   30e72:	8b 45 10             	mov    0x10(%ebp),%eax
   30e75:	8b 55 08             	mov    0x8(%ebp),%edx
   30e78:	66 89 02             	mov    %ax,(%edx)
   30e7b:	8b 45 0c             	mov    0xc(%ebp),%eax
   30e7e:	8b 55 08             	mov    0x8(%ebp),%edx
   30e81:	66 89 42 02          	mov    %ax,0x2(%edx)
   30e85:	8b 45 08             	mov    0x8(%ebp),%eax
   30e88:	c6 40 04 00          	movb   $0x0,0x4(%eax)
   30e8c:	8b 45 08             	mov    0x8(%ebp),%eax
   30e8f:	8a 50 05             	mov    0x5(%eax),%dl
   30e92:	83 ca 0f             	or     $0xf,%edx
   30e95:	88 50 05             	mov    %dl,0x5(%eax)
   30e98:	8b 45 08             	mov    0x8(%ebp),%eax
   30e9b:	8a 50 05             	mov    0x5(%eax),%dl
   30e9e:	83 e2 ef             	and    $0xffffffef,%edx
   30ea1:	88 50 05             	mov    %dl,0x5(%eax)
   30ea4:	8b 45 14             	mov    0x14(%ebp),%eax
   30ea7:	88 c2                	mov    %al,%dl
   30ea9:	83 e2 03             	and    $0x3,%edx
   30eac:	8b 45 08             	mov    0x8(%ebp),%eax
   30eaf:	83 e2 03             	and    $0x3,%edx
   30eb2:	88 d1                	mov    %dl,%cl
   30eb4:	c1 e1 05             	shl    $0x5,%ecx
   30eb7:	8a 50 05             	mov    0x5(%eax),%dl
   30eba:	83 e2 9f             	and    $0xffffff9f,%edx
   30ebd:	09 ca                	or     %ecx,%edx
   30ebf:	88 50 05             	mov    %dl,0x5(%eax)
   30ec2:	8b 45 08             	mov    0x8(%ebp),%eax
   30ec5:	8a 50 05             	mov    0x5(%eax),%dl
   30ec8:	83 ca 80             	or     $0xffffff80,%edx
   30ecb:	88 50 05             	mov    %dl,0x5(%eax)
   30ece:	8b 45 10             	mov    0x10(%ebp),%eax
   30ed1:	c1 e8 10             	shr    $0x10,%eax
   30ed4:	8b 55 08             	mov    0x8(%ebp),%edx
   30ed7:	66 89 42 06          	mov    %ax,0x6(%edx)
   30edb:	90                   	nop
   30edc:	5d                   	pop    %ebp
   30edd:	c3                   	ret    

00030ede <init_idt>:
   30ede:	55                   	push   %ebp
   30edf:	89 e5                	mov    %esp,%ebp
   30ee1:	53                   	push   %ebx
   30ee2:	83 ec 10             	sub    $0x10,%esp
   30ee5:	e8 5e f2 ff ff       	call   30148 <__x86.get_pc_thunk.bx>
   30eea:	81 c3 16 c1 00 00    	add    $0xc116,%ebx
   30ef0:	c7 45 f8 00 00 00 00 	movl   $0x0,-0x8(%ebp)
   30ef7:	eb 2b                	jmp    30f24 <init_idt+0x46>
   30ef9:	c7 c0 cd 00 03 00    	mov    $0x300cd,%eax
   30eff:	89 c2                	mov    %eax,%edx
   30f01:	8b 45 f8             	mov    -0x8(%ebp),%eax
   30f04:	8d 0c c5 00 00 00 00 	lea    0x0(,%eax,8),%ecx
   30f0b:	8d 83 80 16 01 00    	lea    0x11680(%ebx),%eax
   30f11:	01 c8                	add    %ecx,%eax
   30f13:	6a 00                	push   $0x0
   30f15:	52                   	push   %edx
   30f16:	6a 08                	push   $0x8
   30f18:	50                   	push   %eax
   30f19:	e8 47 ff ff ff       	call   30e65 <set_trap>
   30f1e:	83 c4 10             	add    $0x10,%esp
   30f21:	ff 45 f8             	incl   -0x8(%ebp)
   30f24:	81 7d f8 ff 00 00 00 	cmpl   $0xff,-0x8(%ebp)
   30f2b:	7e cc                	jle    30ef9 <init_idt+0x1b>
   30f2d:	c7 c0 52 00 03 00    	mov    $0x30052,%eax
   30f33:	6a 00                	push   $0x0
   30f35:	50                   	push   %eax
   30f36:	6a 08                	push   $0x8
   30f38:	8d 83 80 16 01 00    	lea    0x11680(%ebx),%eax
   30f3e:	50                   	push   %eax
   30f3f:	e8 21 ff ff ff       	call   30e65 <set_trap>
   30f44:	83 c4 10             	add    $0x10,%esp
   30f47:	c7 c0 58 00 03 00    	mov    $0x30058,%eax
   30f4d:	89 c2                	mov    %eax,%edx
   30f4f:	8d 83 88 16 01 00    	lea    0x11688(%ebx),%eax
   30f55:	6a 00                	push   $0x0
   30f57:	52                   	push   %edx
   30f58:	6a 08                	push   $0x8
   30f5a:	50                   	push   %eax
   30f5b:	e8 05 ff ff ff       	call   30e65 <set_trap>
   30f60:	83 c4 10             	add    $0x10,%esp
   30f63:	c7 c0 5e 00 03 00    	mov    $0x3005e,%eax
   30f69:	89 c2                	mov    %eax,%edx
   30f6b:	8d 83 90 16 01 00    	lea    0x11690(%ebx),%eax
   30f71:	6a 00                	push   $0x0
   30f73:	52                   	push   %edx
   30f74:	6a 08                	push   $0x8
   30f76:	50                   	push   %eax
   30f77:	e8 e9 fe ff ff       	call   30e65 <set_trap>
   30f7c:	83 c4 10             	add    $0x10,%esp
   30f7f:	c7 c0 64 00 03 00    	mov    $0x30064,%eax
   30f85:	89 c2                	mov    %eax,%edx
   30f87:	8d 83 98 16 01 00    	lea    0x11698(%ebx),%eax
   30f8d:	6a 00                	push   $0x0
   30f8f:	52                   	push   %edx
   30f90:	6a 08                	push   $0x8
   30f92:	50                   	push   %eax
   30f93:	e8 cd fe ff ff       	call   30e65 <set_trap>
   30f98:	83 c4 10             	add    $0x10,%esp
   30f9b:	c7 c0 6a 00 03 00    	mov    $0x3006a,%eax
   30fa1:	89 c2                	mov    %eax,%edx
   30fa3:	8d 83 a0 16 01 00    	lea    0x116a0(%ebx),%eax
   30fa9:	6a 00                	push   $0x0
   30fab:	52                   	push   %edx
   30fac:	6a 08                	push   $0x8
   30fae:	50                   	push   %eax
   30faf:	e8 b1 fe ff ff       	call   30e65 <set_trap>
   30fb4:	83 c4 10             	add    $0x10,%esp
   30fb7:	c7 c0 70 00 03 00    	mov    $0x30070,%eax
   30fbd:	89 c2                	mov    %eax,%edx
   30fbf:	8d 83 a8 16 01 00    	lea    0x116a8(%ebx),%eax
   30fc5:	6a 00                	push   $0x0
   30fc7:	52                   	push   %edx
   30fc8:	6a 08                	push   $0x8
   30fca:	50                   	push   %eax
   30fcb:	e8 95 fe ff ff       	call   30e65 <set_trap>
   30fd0:	83 c4 10             	add    $0x10,%esp
   30fd3:	c7 c0 76 00 03 00    	mov    $0x30076,%eax
   30fd9:	89 c2                	mov    %eax,%edx
   30fdb:	8d 83 b0 16 01 00    	lea    0x116b0(%ebx),%eax
   30fe1:	6a 00                	push   $0x0
   30fe3:	52                   	push   %edx
   30fe4:	6a 08                	push   $0x8
   30fe6:	50                   	push   %eax
   30fe7:	e8 79 fe ff ff       	call   30e65 <set_trap>
   30fec:	83 c4 10             	add    $0x10,%esp
   30fef:	c7 c0 7c 00 03 00    	mov    $0x3007c,%eax
   30ff5:	89 c2                	mov    %eax,%edx
   30ff7:	8d 83 b8 16 01 00    	lea    0x116b8(%ebx),%eax
   30ffd:	6a 00                	push   $0x0
   30fff:	52                   	push   %edx
   31000:	6a 08                	push   $0x8
   31002:	50                   	push   %eax
   31003:	e8 5d fe ff ff       	call   30e65 <set_trap>
   31008:	83 c4 10             	add    $0x10,%esp
   3100b:	c7 c0 82 00 03 00    	mov    $0x30082,%eax
   31011:	89 c2                	mov    %eax,%edx
   31013:	8d 83 c0 16 01 00    	lea    0x116c0(%ebx),%eax
   31019:	6a 00                	push   $0x0
   3101b:	52                   	push   %edx
   3101c:	6a 08                	push   $0x8
   3101e:	50                   	push   %eax
   3101f:	e8 41 fe ff ff       	call   30e65 <set_trap>
   31024:	83 c4 10             	add    $0x10,%esp
   31027:	c7 c0 86 00 03 00    	mov    $0x30086,%eax
   3102d:	89 c2                	mov    %eax,%edx
   3102f:	8d 83 c8 16 01 00    	lea    0x116c8(%ebx),%eax
   31035:	6a 00                	push   $0x0
   31037:	52                   	push   %edx
   31038:	6a 08                	push   $0x8
   3103a:	50                   	push   %eax
   3103b:	e8 25 fe ff ff       	call   30e65 <set_trap>
   31040:	83 c4 10             	add    $0x10,%esp
   31043:	c7 c0 8c 00 03 00    	mov    $0x3008c,%eax
   31049:	89 c2                	mov    %eax,%edx
   3104b:	8d 83 d0 16 01 00    	lea    0x116d0(%ebx),%eax
   31051:	6a 00                	push   $0x0
   31053:	52                   	push   %edx
   31054:	6a 08                	push   $0x8
   31056:	50                   	push   %eax
   31057:	e8 09 fe ff ff       	call   30e65 <set_trap>
   3105c:	83 c4 10             	add    $0x10,%esp
   3105f:	c7 c0 90 00 03 00    	mov    $0x30090,%eax
   31065:	89 c2                	mov    %eax,%edx
   31067:	8d 83 d8 16 01 00    	lea    0x116d8(%ebx),%eax
   3106d:	6a 00                	push   $0x0
   3106f:	52                   	push   %edx
   31070:	6a 08                	push   $0x8
   31072:	50                   	push   %eax
   31073:	e8 ed fd ff ff       	call   30e65 <set_trap>
   31078:	83 c4 10             	add    $0x10,%esp
   3107b:	c7 c0 94 00 03 00    	mov    $0x30094,%eax
   31081:	89 c2                	mov    %eax,%edx
   31083:	8d 83 e0 16 01 00    	lea    0x116e0(%ebx),%eax
   31089:	6a 00                	push   $0x0
   3108b:	52                   	push   %edx
   3108c:	6a 08                	push   $0x8
   3108e:	50                   	push   %eax
   3108f:	e8 d1 fd ff ff       	call   30e65 <set_trap>
   31094:	83 c4 10             	add    $0x10,%esp
   31097:	c7 c0 98 00 03 00    	mov    $0x30098,%eax
   3109d:	89 c2                	mov    %eax,%edx
   3109f:	8d 83 e8 16 01 00    	lea    0x116e8(%ebx),%eax
   310a5:	6a 00                	push   $0x0
   310a7:	52                   	push   %edx
   310a8:	6a 08                	push   $0x8
   310aa:	50                   	push   %eax
   310ab:	e8 b5 fd ff ff       	call   30e65 <set_trap>
   310b0:	83 c4 10             	add    $0x10,%esp
   310b3:	c7 c0 9c 00 03 00    	mov    $0x3009c,%eax
   310b9:	89 c2                	mov    %eax,%edx
   310bb:	8d 83 f0 16 01 00    	lea    0x116f0(%ebx),%eax
   310c1:	6a 00                	push   $0x0
   310c3:	52                   	push   %edx
   310c4:	6a 08                	push   $0x8
   310c6:	50                   	push   %eax
   310c7:	e8 99 fd ff ff       	call   30e65 <set_trap>
   310cc:	83 c4 10             	add    $0x10,%esp
   310cf:	c7 c0 a0 00 03 00    	mov    $0x300a0,%eax
   310d5:	89 c2                	mov    %eax,%edx
   310d7:	8d 83 80 1a 01 00    	lea    0x11a80(%ebx),%eax
   310dd:	6a 03                	push   $0x3
   310df:	52                   	push   %edx
   310e0:	6a 08                	push   $0x8
   310e2:	50                   	push   %eax
   310e3:	e8 7d fd ff ff       	call   30e65 <set_trap>
   310e8:	83 c4 10             	add    $0x10,%esp
   310eb:	c7 c0 a9 00 03 00    	mov    $0x300a9,%eax
   310f1:	89 c2                	mov    %eax,%edx
   310f3:	8d 83 80 17 01 00    	lea    0x11780(%ebx),%eax
   310f9:	6a 00                	push   $0x0
   310fb:	52                   	push   %edx
   310fc:	6a 08                	push   $0x8
   310fe:	50                   	push   %eax
   310ff:	e8 e5 fc ff ff       	call   30de9 <set_intr>
   31104:	83 c4 10             	add    $0x10,%esp
   31107:	c7 c0 b2 00 03 00    	mov    $0x300b2,%eax
   3110d:	89 c2                	mov    %eax,%edx
   3110f:	8d 83 88 17 01 00    	lea    0x11788(%ebx),%eax
   31115:	6a 00                	push   $0x0
   31117:	52                   	push   %edx
   31118:	6a 08                	push   $0x8
   3111a:	50                   	push   %eax
   3111b:	e8 c9 fc ff ff       	call   30de9 <set_intr>
   31120:	83 c4 10             	add    $0x10,%esp
   31123:	c7 c0 bb 00 03 00    	mov    $0x300bb,%eax
   31129:	89 c2                	mov    %eax,%edx
   3112b:	8d 83 90 17 01 00    	lea    0x11790(%ebx),%eax
   31131:	6a 00                	push   $0x0
   31133:	52                   	push   %edx
   31134:	6a 08                	push   $0x8
   31136:	50                   	push   %eax
   31137:	e8 ad fc ff ff       	call   30de9 <set_intr>
   3113c:	83 c4 10             	add    $0x10,%esp
   3113f:	c7 c0 c4 00 03 00    	mov    $0x300c4,%eax
   31145:	89 c2                	mov    %eax,%edx
   31147:	8d 83 f0 17 01 00    	lea    0x117f0(%ebx),%eax
   3114d:	6a 00                	push   $0x0
   3114f:	52                   	push   %edx
   31150:	6a 08                	push   $0x8
   31152:	50                   	push   %eax
   31153:	e8 91 fc ff ff       	call   30de9 <set_intr>
   31158:	83 c4 10             	add    $0x10,%esp
   3115b:	68 00 08 00 00       	push   $0x800
   31160:	8d 83 80 16 01 00    	lea    0x11680(%ebx),%eax
   31166:	50                   	push   %eax
   31167:	e8 31 fc ff ff       	call   30d9d <write_idtr>
   3116c:	83 c4 08             	add    $0x8,%esp
   3116f:	e8 64 fc ff ff       	call   30dd8 <sti>
   31174:	90                   	nop
   31175:	8b 5d fc             	mov    -0x4(%ebp),%ebx
   31178:	c9                   	leave  
   31179:	c3                   	ret    

0003117a <fs_open>:
   3117a:	55                   	push   %ebp
   3117b:	89 e5                	mov    %esp,%ebp
   3117d:	53                   	push   %ebx
   3117e:	83 ec 04             	sub    $0x4,%esp
   31181:	e8 be ef ff ff       	call   30144 <__x86.get_pc_thunk.ax>
   31186:	05 7a be 00 00       	add    $0xbe7a,%eax
   3118b:	8d 90 e0 c5 ff ff    	lea    -0x3a20(%eax),%edx
   31191:	52                   	push   %edx
   31192:	6a 28                	push   $0x28
   31194:	8d 90 17 c4 ff ff    	lea    -0x3be9(%eax),%edx
   3119a:	52                   	push   %edx
   3119b:	8d 90 24 c4 ff ff    	lea    -0x3bdc(%eax),%edx
   311a1:	52                   	push   %edx
   311a2:	89 c3                	mov    %eax,%ebx
   311a4:	e8 8d f8 ff ff       	call   30a36 <printk>
   311a9:	83 c4 10             	add    $0x10,%esp
   311ac:	b8 01 00 00 00       	mov    $0x1,%eax
   311b1:	82                   	nemu_trap 
   311b2:	b8 ff ff ff ff       	mov    $0xffffffff,%eax
   311b7:	8b 5d fc             	mov    -0x4(%ebp),%ebx
   311ba:	c9                   	leave  
   311bb:	c3                   	ret    

000311bc <fs_read>:
   311bc:	55                   	push   %ebp
   311bd:	89 e5                	mov    %esp,%ebp
   311bf:	53                   	push   %ebx
   311c0:	83 ec 04             	sub    $0x4,%esp
   311c3:	e8 80 ef ff ff       	call   30148 <__x86.get_pc_thunk.bx>
   311c8:	81 c3 38 be 00 00    	add    $0xbe38,%ebx
   311ce:	83 7d 08 02          	cmpl   $0x2,0x8(%ebp)
   311d2:	7f 2f                	jg     31203 <fs_read+0x47>
   311d4:	83 ec 0c             	sub    $0xc,%esp
   311d7:	8d 83 7a c4 ff ff    	lea    -0x3b86(%ebx),%eax
   311dd:	50                   	push   %eax
   311de:	8d 83 e8 c5 ff ff    	lea    -0x3a18(%ebx),%eax
   311e4:	50                   	push   %eax
   311e5:	6a 2e                	push   $0x2e
   311e7:	8d 83 17 c4 ff ff    	lea    -0x3be9(%ebx),%eax
   311ed:	50                   	push   %eax
   311ee:	8d 83 84 c4 ff ff    	lea    -0x3b7c(%ebx),%eax
   311f4:	50                   	push   %eax
   311f5:	e8 3c f8 ff ff       	call   30a36 <printk>
   311fa:	83 c4 20             	add    $0x20,%esp
   311fd:	b8 01 00 00 00       	mov    $0x1,%eax
   31202:	82                   	nemu_trap 
   31203:	8d 83 e8 c5 ff ff    	lea    -0x3a18(%ebx),%eax
   31209:	50                   	push   %eax
   3120a:	6a 2f                	push   $0x2f
   3120c:	8d 83 17 c4 ff ff    	lea    -0x3be9(%ebx),%eax
   31212:	50                   	push   %eax
   31213:	8d 83 d0 c4 ff ff    	lea    -0x3b30(%ebx),%eax
   31219:	50                   	push   %eax
   3121a:	e8 17 f8 ff ff       	call   30a36 <printk>
   3121f:	83 c4 10             	add    $0x10,%esp
   31222:	b8 01 00 00 00       	mov    $0x1,%eax
   31227:	82                   	nemu_trap 
   31228:	b8 ff ff ff ff       	mov    $0xffffffff,%eax
   3122d:	8b 5d fc             	mov    -0x4(%ebp),%ebx
   31230:	c9                   	leave  
   31231:	c3                   	ret    

00031232 <fs_write>:
   31232:	55                   	push   %ebp
   31233:	89 e5                	mov    %esp,%ebp
   31235:	53                   	push   %ebx
   31236:	83 ec 04             	sub    $0x4,%esp
   31239:	e8 06 ef ff ff       	call   30144 <__x86.get_pc_thunk.ax>
   3123e:	05 c2 bd 00 00       	add    $0xbdc2,%eax
   31243:	83 7d 08 02          	cmpl   $0x2,0x8(%ebp)
   31247:	7e 31                	jle    3127a <fs_write+0x48>
   31249:	83 ec 0c             	sub    $0xc,%esp
   3124c:	8d 90 26 c5 ff ff    	lea    -0x3ada(%eax),%edx
   31252:	52                   	push   %edx
   31253:	8d 90 f0 c5 ff ff    	lea    -0x3a10(%eax),%edx
   31259:	52                   	push   %edx
   3125a:	6a 35                	push   $0x35
   3125c:	8d 90 17 c4 ff ff    	lea    -0x3be9(%eax),%edx
   31262:	52                   	push   %edx
   31263:	8d 90 84 c4 ff ff    	lea    -0x3b7c(%eax),%edx
   31269:	52                   	push   %edx
   3126a:	89 c3                	mov    %eax,%ebx
   3126c:	e8 c5 f7 ff ff       	call   30a36 <printk>
   31271:	83 c4 20             	add    $0x20,%esp
   31274:	b8 01 00 00 00       	mov    $0x1,%eax
   31279:	82                   	nemu_trap 
   3127a:	b8 04 00 00 00       	mov    $0x4,%eax
   3127f:	8b 5d 08             	mov    0x8(%ebp),%ebx
   31282:	8b 4d 0c             	mov    0xc(%ebp),%ecx
   31285:	8b 55 10             	mov    0x10(%ebp),%edx
   31288:	82                   	nemu_trap 
   31289:	89 45 10             	mov    %eax,0x10(%ebp)
   3128c:	8b 45 10             	mov    0x10(%ebp),%eax
   3128f:	8b 5d fc             	mov    -0x4(%ebp),%ebx
   31292:	c9                   	leave  
   31293:	c3                   	ret    

00031294 <fs_lseek>:
   31294:	55                   	push   %ebp
   31295:	89 e5                	mov    %esp,%ebp
   31297:	53                   	push   %ebx
   31298:	83 ec 04             	sub    $0x4,%esp
   3129b:	e8 a4 ee ff ff       	call   30144 <__x86.get_pc_thunk.ax>
   312a0:	05 60 bd 00 00       	add    $0xbd60,%eax
   312a5:	8d 90 fc c5 ff ff    	lea    -0x3a04(%eax),%edx
   312ab:	52                   	push   %edx
   312ac:	6a 48                	push   $0x48
   312ae:	8d 90 17 c4 ff ff    	lea    -0x3be9(%eax),%edx
   312b4:	52                   	push   %edx
   312b5:	8d 90 30 c5 ff ff    	lea    -0x3ad0(%eax),%edx
   312bb:	52                   	push   %edx
   312bc:	89 c3                	mov    %eax,%ebx
   312be:	e8 73 f7 ff ff       	call   30a36 <printk>
   312c3:	83 c4 10             	add    $0x10,%esp
   312c6:	b8 01 00 00 00       	mov    $0x1,%eax
   312cb:	82                   	nemu_trap 
   312cc:	b8 ff ff ff ff       	mov    $0xffffffff,%eax
   312d1:	8b 5d fc             	mov    -0x4(%ebp),%ebx
   312d4:	c9                   	leave  
   312d5:	c3                   	ret    

000312d6 <fs_close>:
   312d6:	55                   	push   %ebp
   312d7:	89 e5                	mov    %esp,%ebp
   312d9:	53                   	push   %ebx
   312da:	83 ec 04             	sub    $0x4,%esp
   312dd:	e8 62 ee ff ff       	call   30144 <__x86.get_pc_thunk.ax>
   312e2:	05 1e bd 00 00       	add    $0xbd1e,%eax
   312e7:	8d 90 08 c6 ff ff    	lea    -0x39f8(%eax),%edx
   312ed:	52                   	push   %edx
   312ee:	6a 4e                	push   $0x4e
   312f0:	8d 90 17 c4 ff ff    	lea    -0x3be9(%eax),%edx
   312f6:	52                   	push   %edx
   312f7:	8d 90 88 c5 ff ff    	lea    -0x3a78(%eax),%edx
   312fd:	52                   	push   %edx
   312fe:	89 c3                	mov    %eax,%ebx
   31300:	e8 31 f7 ff ff       	call   30a36 <printk>
   31305:	83 c4 10             	add    $0x10,%esp
   31308:	b8 01 00 00 00       	mov    $0x1,%eax
   3130d:	82                   	nemu_trap 
   3130e:	b8 ff ff ff ff       	mov    $0xffffffff,%eax
   31313:	8b 5d fc             	mov    -0x4(%ebp),%ebx
   31316:	c9                   	leave  
   31317:	c3                   	ret    

00031318 <sti>:
   31318:	55                   	push   %ebp
   31319:	89 e5                	mov    %esp,%ebp
   3131b:	e8 24 ee ff ff       	call   30144 <__x86.get_pc_thunk.ax>
   31320:	05 e0 bc 00 00       	add    $0xbce0,%eax
   31325:	fb                   	sti    
   31326:	90                   	nop
   31327:	5d                   	pop    %ebp
   31328:	c3                   	ret    

00031329 <cli>:
   31329:	55                   	push   %ebp
   3132a:	89 e5                	mov    %esp,%ebp
   3132c:	e8 13 ee ff ff       	call   30144 <__x86.get_pc_thunk.ax>
   31331:	05 cf bc 00 00       	add    $0xbccf,%eax
   31336:	fa                   	cli    
   31337:	90                   	nop
   31338:	5d                   	pop    %ebp
   31339:	c3                   	ret    

0003133a <sys_brk>:
   3133a:	55                   	push   %ebp
   3133b:	89 e5                	mov    %esp,%ebp
   3133d:	e8 02 ee ff ff       	call   30144 <__x86.get_pc_thunk.ax>
   31342:	05 be bc 00 00       	add    $0xbcbe,%eax
   31347:	8b 45 08             	mov    0x8(%ebp),%eax
   3134a:	c7 40 1c 00 00 00 00 	movl   $0x0,0x1c(%eax)
   31351:	90                   	nop
   31352:	5d                   	pop    %ebp
   31353:	c3                   	ret    

00031354 <sys_open>:
   31354:	55                   	push   %ebp
   31355:	89 e5                	mov    %esp,%ebp
   31357:	53                   	push   %ebx
   31358:	83 ec 04             	sub    $0x4,%esp
   3135b:	e8 e4 ed ff ff       	call   30144 <__x86.get_pc_thunk.ax>
   31360:	05 a0 bc 00 00       	add    $0xbca0,%eax
   31365:	8b 55 08             	mov    0x8(%ebp),%edx
   31368:	8b 52 18             	mov    0x18(%edx),%edx
   3136b:	89 d1                	mov    %edx,%ecx
   3136d:	8b 55 08             	mov    0x8(%ebp),%edx
   31370:	8b 52 10             	mov    0x10(%edx),%edx
   31373:	83 ec 08             	sub    $0x8,%esp
   31376:	51                   	push   %ecx
   31377:	52                   	push   %edx
   31378:	89 c3                	mov    %eax,%ebx
   3137a:	e8 fb fd ff ff       	call   3117a <fs_open>
   3137f:	83 c4 10             	add    $0x10,%esp
   31382:	89 c2                	mov    %eax,%edx
   31384:	8b 45 08             	mov    0x8(%ebp),%eax
   31387:	89 50 1c             	mov    %edx,0x1c(%eax)
   3138a:	90                   	nop
   3138b:	8b 5d fc             	mov    -0x4(%ebp),%ebx
   3138e:	c9                   	leave  
   3138f:	c3                   	ret    

00031390 <sys_read>:
   31390:	55                   	push   %ebp
   31391:	89 e5                	mov    %esp,%ebp
   31393:	53                   	push   %ebx
   31394:	83 ec 04             	sub    $0x4,%esp
   31397:	e8 a8 ed ff ff       	call   30144 <__x86.get_pc_thunk.ax>
   3139c:	05 64 bc 00 00       	add    $0xbc64,%eax
   313a1:	8b 55 08             	mov    0x8(%ebp),%edx
   313a4:	8b 52 14             	mov    0x14(%edx),%edx
   313a7:	8b 4d 08             	mov    0x8(%ebp),%ecx
   313aa:	8b 49 18             	mov    0x18(%ecx),%ecx
   313ad:	89 cb                	mov    %ecx,%ebx
   313af:	8b 4d 08             	mov    0x8(%ebp),%ecx
   313b2:	8b 49 10             	mov    0x10(%ecx),%ecx
   313b5:	83 ec 04             	sub    $0x4,%esp
   313b8:	52                   	push   %edx
   313b9:	53                   	push   %ebx
   313ba:	51                   	push   %ecx
   313bb:	89 c3                	mov    %eax,%ebx
   313bd:	e8 fa fd ff ff       	call   311bc <fs_read>
   313c2:	83 c4 10             	add    $0x10,%esp
   313c5:	89 c2                	mov    %eax,%edx
   313c7:	8b 45 08             	mov    0x8(%ebp),%eax
   313ca:	89 50 1c             	mov    %edx,0x1c(%eax)
   313cd:	90                   	nop
   313ce:	8b 5d fc             	mov    -0x4(%ebp),%ebx
   313d1:	c9                   	leave  
   313d2:	c3                   	ret    

000313d3 <sys_write>:
   313d3:	55                   	push   %ebp
   313d4:	89 e5                	mov    %esp,%ebp
   313d6:	53                   	push   %ebx
   313d7:	83 ec 04             	sub    $0x4,%esp
   313da:	e8 65 ed ff ff       	call   30144 <__x86.get_pc_thunk.ax>
   313df:	05 21 bc 00 00       	add    $0xbc21,%eax
   313e4:	8b 55 08             	mov    0x8(%ebp),%edx
   313e7:	8b 52 14             	mov    0x14(%edx),%edx
   313ea:	8b 4d 08             	mov    0x8(%ebp),%ecx
   313ed:	8b 49 18             	mov    0x18(%ecx),%ecx
   313f0:	89 cb                	mov    %ecx,%ebx
   313f2:	8b 4d 08             	mov    0x8(%ebp),%ecx
   313f5:	8b 49 10             	mov    0x10(%ecx),%ecx
   313f8:	83 ec 04             	sub    $0x4,%esp
   313fb:	52                   	push   %edx
   313fc:	53                   	push   %ebx
   313fd:	51                   	push   %ecx
   313fe:	89 c3                	mov    %eax,%ebx
   31400:	e8 2d fe ff ff       	call   31232 <fs_write>
   31405:	83 c4 10             	add    $0x10,%esp
   31408:	89 c2                	mov    %eax,%edx
   3140a:	8b 45 08             	mov    0x8(%ebp),%eax
   3140d:	89 50 1c             	mov    %edx,0x1c(%eax)
   31410:	90                   	nop
   31411:	8b 5d fc             	mov    -0x4(%ebp),%ebx
   31414:	c9                   	leave  
   31415:	c3                   	ret    

00031416 <sys_lseek>:
   31416:	55                   	push   %ebp
   31417:	89 e5                	mov    %esp,%ebp
   31419:	53                   	push   %ebx
   3141a:	83 ec 04             	sub    $0x4,%esp
   3141d:	e8 22 ed ff ff       	call   30144 <__x86.get_pc_thunk.ax>
   31422:	05 de bb 00 00       	add    $0xbbde,%eax
   31427:	8b 55 08             	mov    0x8(%ebp),%edx
   3142a:	8b 52 14             	mov    0x14(%edx),%edx
   3142d:	89 d3                	mov    %edx,%ebx
   3142f:	8b 55 08             	mov    0x8(%ebp),%edx
   31432:	8b 52 18             	mov    0x18(%edx),%edx
   31435:	89 d1                	mov    %edx,%ecx
   31437:	8b 55 08             	mov    0x8(%ebp),%edx
   3143a:	8b 52 10             	mov    0x10(%edx),%edx
   3143d:	83 ec 04             	sub    $0x4,%esp
   31440:	53                   	push   %ebx
   31441:	51                   	push   %ecx
   31442:	52                   	push   %edx
   31443:	89 c3                	mov    %eax,%ebx
   31445:	e8 4a fe ff ff       	call   31294 <fs_lseek>
   3144a:	83 c4 10             	add    $0x10,%esp
   3144d:	89 c2                	mov    %eax,%edx
   3144f:	8b 45 08             	mov    0x8(%ebp),%eax
   31452:	89 50 1c             	mov    %edx,0x1c(%eax)
   31455:	90                   	nop
   31456:	8b 5d fc             	mov    -0x4(%ebp),%ebx
   31459:	c9                   	leave  
   3145a:	c3                   	ret    

0003145b <sys_close>:
   3145b:	55                   	push   %ebp
   3145c:	89 e5                	mov    %esp,%ebp
   3145e:	53                   	push   %ebx
   3145f:	83 ec 04             	sub    $0x4,%esp
   31462:	e8 dd ec ff ff       	call   30144 <__x86.get_pc_thunk.ax>
   31467:	05 99 bb 00 00       	add    $0xbb99,%eax
   3146c:	8b 55 08             	mov    0x8(%ebp),%edx
   3146f:	8b 52 10             	mov    0x10(%edx),%edx
   31472:	83 ec 0c             	sub    $0xc,%esp
   31475:	52                   	push   %edx
   31476:	89 c3                	mov    %eax,%ebx
   31478:	e8 59 fe ff ff       	call   312d6 <fs_close>
   3147d:	83 c4 10             	add    $0x10,%esp
   31480:	89 c2                	mov    %eax,%edx
   31482:	8b 45 08             	mov    0x8(%ebp),%eax
   31485:	89 50 1c             	mov    %edx,0x1c(%eax)
   31488:	90                   	nop
   31489:	8b 5d fc             	mov    -0x4(%ebp),%ebx
   3148c:	c9                   	leave  
   3148d:	c3                   	ret    

0003148e <do_syscall>:
   3148e:	55                   	push   %ebp
   3148f:	89 e5                	mov    %esp,%ebp
   31491:	53                   	push   %ebx
   31492:	83 ec 04             	sub    $0x4,%esp
   31495:	e8 ae ec ff ff       	call   30148 <__x86.get_pc_thunk.bx>
   3149a:	81 c3 66 bb 00 00    	add    $0xbb66,%ebx
   314a0:	8b 45 08             	mov    0x8(%ebp),%eax
   314a3:	8b 40 1c             	mov    0x1c(%eax),%eax
   314a6:	83 f8 2d             	cmp    $0x2d,%eax
   314a9:	0f 87 98 00 00 00    	ja     31547 <.L10>
   314af:	c1 e0 02             	shl    $0x2,%eax
   314b2:	8b 84 18 84 c6 ff ff 	mov    -0x397c(%eax,%ebx,1),%eax
   314b9:	01 d8                	add    %ebx,%eax
   314bb:	ff e0                	jmp    *%eax

000314bd <.L18>:
   314bd:	e8 67 fe ff ff       	call   31329 <cli>
   314c2:	8b 45 08             	mov    0x8(%ebp),%eax
   314c5:	8b 40 18             	mov    0x18(%eax),%eax
   314c8:	89 c2                	mov    %eax,%edx
   314ca:	8b 45 08             	mov    0x8(%ebp),%eax
   314cd:	8b 40 10             	mov    0x10(%eax),%eax
   314d0:	83 ec 08             	sub    $0x8,%esp
   314d3:	52                   	push   %edx
   314d4:	50                   	push   %eax
   314d5:	e8 b0 f5 ff ff       	call   30a8a <add_irq_handle>
   314da:	83 c4 10             	add    $0x10,%esp
   314dd:	e8 36 fe ff ff       	call   31318 <sti>
   314e2:	e9 8f 00 00 00       	jmp    31576 <.L10+0x2f>

000314e7 <.L11>:
   314e7:	83 ec 0c             	sub    $0xc,%esp
   314ea:	ff 75 08             	pushl  0x8(%ebp)
   314ed:	e8 48 fe ff ff       	call   3133a <sys_brk>
   314f2:	83 c4 10             	add    $0x10,%esp
   314f5:	eb 7f                	jmp    31576 <.L10+0x2f>

000314f7 <.L15>:
   314f7:	83 ec 0c             	sub    $0xc,%esp
   314fa:	ff 75 08             	pushl  0x8(%ebp)
   314fd:	e8 52 fe ff ff       	call   31354 <sys_open>
   31502:	83 c4 10             	add    $0x10,%esp
   31505:	eb 6f                	jmp    31576 <.L10+0x2f>

00031507 <.L17>:
   31507:	83 ec 0c             	sub    $0xc,%esp
   3150a:	ff 75 08             	pushl  0x8(%ebp)
   3150d:	e8 7e fe ff ff       	call   31390 <sys_read>
   31512:	83 c4 10             	add    $0x10,%esp
   31515:	eb 5f                	jmp    31576 <.L10+0x2f>

00031517 <.L16>:
   31517:	83 ec 0c             	sub    $0xc,%esp
   3151a:	ff 75 08             	pushl  0x8(%ebp)
   3151d:	e8 b1 fe ff ff       	call   313d3 <sys_write>
   31522:	83 c4 10             	add    $0x10,%esp
   31525:	eb 4f                	jmp    31576 <.L10+0x2f>

00031527 <.L13>:
   31527:	83 ec 0c             	sub    $0xc,%esp
   3152a:	ff 75 08             	pushl  0x8(%ebp)
   3152d:	e8 e4 fe ff ff       	call   31416 <sys_lseek>
   31532:	83 c4 10             	add    $0x10,%esp
   31535:	eb 3f                	jmp    31576 <.L10+0x2f>

00031537 <.L14>:
   31537:	83 ec 0c             	sub    $0xc,%esp
   3153a:	ff 75 08             	pushl  0x8(%ebp)
   3153d:	e8 19 ff ff ff       	call   3145b <sys_close>
   31542:	83 c4 10             	add    $0x10,%esp
   31545:	eb 2f                	jmp    31576 <.L10+0x2f>

00031547 <.L10>:
   31547:	8b 45 08             	mov    0x8(%ebp),%eax
   3154a:	8b 40 1c             	mov    0x1c(%eax),%eax
   3154d:	83 ec 0c             	sub    $0xc,%esp
   31550:	50                   	push   %eax
   31551:	8d 83 3c c7 ff ff    	lea    -0x38c4(%ebx),%eax
   31557:	50                   	push   %eax
   31558:	6a 4a                	push   $0x4a
   3155a:	8d 83 14 c6 ff ff    	lea    -0x39ec(%ebx),%eax
   31560:	50                   	push   %eax
   31561:	8d 83 30 c6 ff ff    	lea    -0x39d0(%ebx),%eax
   31567:	50                   	push   %eax
   31568:	e8 c9 f4 ff ff       	call   30a36 <printk>
   3156d:	83 c4 20             	add    $0x20,%esp
   31570:	b8 01 00 00 00       	mov    $0x1,%eax
   31575:	82                   	nemu_trap 
   31576:	90                   	nop
   31577:	8b 5d fc             	mov    -0x4(%ebp),%ebx
   3157a:	c9                   	leave  
   3157b:	c3                   	ret    

0003157c <get_updir>:
   3157c:	55                   	push   %ebp
   3157d:	89 e5                	mov    %esp,%ebp
   3157f:	e8 c0 eb ff ff       	call   30144 <__x86.get_pc_thunk.ax>
   31584:	05 7c ba 00 00       	add    $0xba7c,%eax
   31589:	c7 c0 00 10 07 00    	mov    $0x71000,%eax
   3158f:	5d                   	pop    %ebp
   31590:	c3                   	ret    

00031591 <get_ucr3>:
   31591:	55                   	push   %ebp
   31592:	89 e5                	mov    %esp,%ebp
   31594:	e8 ab eb ff ff       	call   30144 <__x86.get_pc_thunk.ax>
   31599:	05 67 ba 00 00       	add    $0xba67,%eax
   3159e:	c7 c0 00 20 07 00    	mov    $0x72000,%eax
   315a4:	8b 00                	mov    (%eax),%eax
   315a6:	5d                   	pop    %ebp
   315a7:	c3                   	ret    

000315a8 <mm_brk>:
   315a8:	55                   	push   %ebp
   315a9:	89 e5                	mov    %esp,%ebp
   315ab:	53                   	push   %ebx
   315ac:	83 ec 04             	sub    $0x4,%esp
   315af:	e8 94 eb ff ff       	call   30148 <__x86.get_pc_thunk.bx>
   315b4:	81 c3 4c ba 00 00    	add    $0xba4c,%ebx
   315ba:	8b 83 88 1e 01 00    	mov    0x11e88(%ebx),%eax
   315c0:	39 45 08             	cmp    %eax,0x8(%ebp)
   315c3:	76 22                	jbe    315e7 <mm_brk+0x3f>
   315c5:	8b 83 88 1e 01 00    	mov    0x11e88(%ebx),%eax
   315cb:	8b 55 08             	mov    0x8(%ebp),%edx
   315ce:	29 c2                	sub    %eax,%edx
   315d0:	89 d0                	mov    %edx,%eax
   315d2:	89 c2                	mov    %eax,%edx
   315d4:	8b 83 88 1e 01 00    	mov    0x11e88(%ebx),%eax
   315da:	83 ec 08             	sub    $0x8,%esp
   315dd:	52                   	push   %edx
   315de:	50                   	push   %eax
   315df:	e8 8c 04 00 00       	call   31a70 <mm_malloc>
   315e4:	83 c4 10             	add    $0x10,%esp
   315e7:	8b 45 08             	mov    0x8(%ebp),%eax
   315ea:	89 83 88 1e 01 00    	mov    %eax,0x11e88(%ebx)
   315f0:	90                   	nop
   315f1:	8b 5d fc             	mov    -0x4(%ebp),%ebx
   315f4:	c9                   	leave  
   315f5:	c3                   	ret    

000315f6 <init_mm>:
   315f6:	55                   	push   %ebp
   315f7:	89 e5                	mov    %esp,%ebp
   315f9:	53                   	push   %ebx
   315fa:	83 ec 14             	sub    $0x14,%esp
   315fd:	e8 46 eb ff ff       	call   30148 <__x86.get_pc_thunk.bx>
   31602:	81 c3 fe b9 00 00    	add    $0xb9fe,%ebx
   31608:	e8 ff 01 00 00       	call   3180c <get_kpdir>
   3160d:	89 45 f4             	mov    %eax,-0xc(%ebp)
   31610:	83 ec 04             	sub    $0x4,%esp
   31613:	68 00 10 00 00       	push   $0x1000
   31618:	6a 00                	push   $0x0
   3161a:	c7 c0 00 10 07 00    	mov    $0x71000,%eax
   31620:	50                   	push   %eax
   31621:	e8 26 07 00 00       	call   31d4c <memset>
   31626:	83 c4 10             	add    $0x10,%esp
   31629:	83 ec 04             	sub    $0x4,%esp
   3162c:	68 80 00 00 00       	push   $0x80
   31631:	ff 75 f4             	pushl  -0xc(%ebp)
   31634:	c7 c0 00 10 07 00    	mov    $0x71000,%eax
   3163a:	50                   	push   %eax
   3163b:	e8 c4 06 00 00       	call   31d04 <memcpy>
   31640:	83 c4 10             	add    $0x10,%esp
   31643:	c7 c0 00 10 07 00    	mov    $0x71000,%eax
   31649:	25 00 fc ff ff       	and    $0xfffffc00,%eax
   3164e:	89 c2                	mov    %eax,%edx
   31650:	c7 c0 00 20 07 00    	mov    $0x72000,%eax
   31656:	89 10                	mov    %edx,(%eax)
   31658:	90                   	nop
   31659:	8b 5d fc             	mov    -0x4(%ebp),%ebx
   3165c:	c9                   	leave  
   3165d:	c3                   	ret    

0003165e <create_video_mapping>:
   3165e:	55                   	push   %ebp
   3165f:	89 e5                	mov    %esp,%ebp
   31661:	53                   	push   %ebx
   31662:	83 ec 04             	sub    $0x4,%esp
   31665:	e8 da ea ff ff       	call   30144 <__x86.get_pc_thunk.ax>
   3166a:	05 96 b9 00 00       	add    $0xb996,%eax
   3166f:	8d 90 00 c8 ff ff    	lea    -0x3800(%eax),%edx
   31675:	52                   	push   %edx
   31676:	6a 14                	push   $0x14
   31678:	8d 90 48 c7 ff ff    	lea    -0x38b8(%eax),%edx
   3167e:	52                   	push   %edx
   3167f:	8d 90 5c c7 ff ff    	lea    -0x38a4(%eax),%edx
   31685:	52                   	push   %edx
   31686:	89 c3                	mov    %eax,%ebx
   31688:	e8 a9 f3 ff ff       	call   30a36 <printk>
   3168d:	83 c4 10             	add    $0x10,%esp
   31690:	b8 01 00 00 00       	mov    $0x1,%eax
   31695:	82                   	nemu_trap 
   31696:	90                   	nop
   31697:	8b 5d fc             	mov    -0x4(%ebp),%ebx
   3169a:	c9                   	leave  
   3169b:	c3                   	ret    

0003169c <video_mapping_write_test>:
   3169c:	55                   	push   %ebp
   3169d:	89 e5                	mov    %esp,%ebp
   3169f:	83 ec 10             	sub    $0x10,%esp
   316a2:	e8 9d ea ff ff       	call   30144 <__x86.get_pc_thunk.ax>
   316a7:	05 59 b9 00 00       	add    $0xb959,%eax
   316ac:	c7 45 f8 00 00 0a 00 	movl   $0xa0000,-0x8(%ebp)
   316b3:	c7 45 fc 00 00 00 00 	movl   $0x0,-0x4(%ebp)
   316ba:	eb 17                	jmp    316d3 <video_mapping_write_test+0x37>
   316bc:	8b 45 fc             	mov    -0x4(%ebp),%eax
   316bf:	8d 14 85 00 00 00 00 	lea    0x0(,%eax,4),%edx
   316c6:	8b 45 f8             	mov    -0x8(%ebp),%eax
   316c9:	01 c2                	add    %eax,%edx
   316cb:	8b 45 fc             	mov    -0x4(%ebp),%eax
   316ce:	89 02                	mov    %eax,(%edx)
   316d0:	ff 45 fc             	incl   -0x4(%ebp)
   316d3:	81 7d fc 7f 3e 00 00 	cmpl   $0x3e7f,-0x4(%ebp)
   316da:	7e e0                	jle    316bc <video_mapping_write_test+0x20>
   316dc:	90                   	nop
   316dd:	c9                   	leave  
   316de:	c3                   	ret    

000316df <video_mapping_read_test>:
   316df:	55                   	push   %ebp
   316e0:	89 e5                	mov    %esp,%ebp
   316e2:	53                   	push   %ebx
   316e3:	83 ec 14             	sub    $0x14,%esp
   316e6:	e8 5d ea ff ff       	call   30148 <__x86.get_pc_thunk.bx>
   316eb:	81 c3 15 b9 00 00    	add    $0xb915,%ebx
   316f1:	c7 45 f0 00 00 0a 00 	movl   $0xa0000,-0x10(%ebp)
   316f8:	c7 45 f4 00 00 00 00 	movl   $0x0,-0xc(%ebp)
   316ff:	eb 4a                	jmp    3174b <video_mapping_read_test+0x6c>
   31701:	8b 45 f4             	mov    -0xc(%ebp),%eax
   31704:	8d 14 85 00 00 00 00 	lea    0x0(,%eax,4),%edx
   3170b:	8b 45 f0             	mov    -0x10(%ebp),%eax
   3170e:	01 d0                	add    %edx,%eax
   31710:	8b 10                	mov    (%eax),%edx
   31712:	8b 45 f4             	mov    -0xc(%ebp),%eax
   31715:	39 c2                	cmp    %eax,%edx
   31717:	74 2f                	je     31748 <video_mapping_read_test+0x69>
   31719:	83 ec 0c             	sub    $0xc,%esp
   3171c:	8d 83 a5 c7 ff ff    	lea    -0x385b(%ebx),%eax
   31722:	50                   	push   %eax
   31723:	8d 83 18 c8 ff ff    	lea    -0x37e8(%ebx),%eax
   31729:	50                   	push   %eax
   3172a:	6a 27                	push   $0x27
   3172c:	8d 83 48 c7 ff ff    	lea    -0x38b8(%ebx),%eax
   31732:	50                   	push   %eax
   31733:	8d 83 b4 c7 ff ff    	lea    -0x384c(%ebx),%eax
   31739:	50                   	push   %eax
   3173a:	e8 f7 f2 ff ff       	call   30a36 <printk>
   3173f:	83 c4 20             	add    $0x20,%esp
   31742:	b8 01 00 00 00       	mov    $0x1,%eax
   31747:	82                   	nemu_trap 
   31748:	ff 45 f4             	incl   -0xc(%ebp)
   3174b:	81 7d f4 7f 3e 00 00 	cmpl   $0x3e7f,-0xc(%ebp)
   31752:	7e ad                	jle    31701 <video_mapping_read_test+0x22>
   31754:	90                   	nop
   31755:	8b 5d fc             	mov    -0x4(%ebp),%ebx
   31758:	c9                   	leave  
   31759:	c3                   	ret    

0003175a <video_mapping_clear>:
   3175a:	55                   	push   %ebp
   3175b:	89 e5                	mov    %esp,%ebp
   3175d:	53                   	push   %ebx
   3175e:	83 ec 04             	sub    $0x4,%esp
   31761:	e8 de e9 ff ff       	call   30144 <__x86.get_pc_thunk.ax>
   31766:	05 9a b8 00 00       	add    $0xb89a,%eax
   3176b:	83 ec 04             	sub    $0x4,%esp
   3176e:	68 00 fa 00 00       	push   $0xfa00
   31773:	6a 00                	push   $0x0
   31775:	68 00 00 0a 00       	push   $0xa0000
   3177a:	89 c3                	mov    %eax,%ebx
   3177c:	e8 cb 05 00 00       	call   31d4c <memset>
   31781:	83 c4 10             	add    $0x10,%esp
   31784:	90                   	nop
   31785:	8b 5d fc             	mov    -0x4(%ebp),%ebx
   31788:	c9                   	leave  
   31789:	c3                   	ret    

0003178a <read_cr0>:
   3178a:	55                   	push   %ebp
   3178b:	89 e5                	mov    %esp,%ebp
   3178d:	83 ec 10             	sub    $0x10,%esp
   31790:	e8 af e9 ff ff       	call   30144 <__x86.get_pc_thunk.ax>
   31795:	05 6b b8 00 00       	add    $0xb86b,%eax
   3179a:	0f 20 c0             	mov    %cr0,%eax
   3179d:	89 45 fc             	mov    %eax,-0x4(%ebp)
   317a0:	8b 45 fc             	mov    -0x4(%ebp),%eax
   317a3:	c9                   	leave  
   317a4:	c3                   	ret    

000317a5 <write_cr0>:
   317a5:	55                   	push   %ebp
   317a6:	89 e5                	mov    %esp,%ebp
   317a8:	e8 97 e9 ff ff       	call   30144 <__x86.get_pc_thunk.ax>
   317ad:	05 53 b8 00 00       	add    $0xb853,%eax
   317b2:	8b 45 08             	mov    0x8(%ebp),%eax
   317b5:	0f 22 c0             	mov    %eax,%cr0
   317b8:	90                   	nop
   317b9:	5d                   	pop    %ebp
   317ba:	c3                   	ret    

000317bb <write_cr3>:
   317bb:	55                   	push   %ebp
   317bc:	89 e5                	mov    %esp,%ebp
   317be:	e8 81 e9 ff ff       	call   30144 <__x86.get_pc_thunk.ax>
   317c3:	05 3d b8 00 00       	add    $0xb83d,%eax
   317c8:	8b 45 08             	mov    0x8(%ebp),%eax
   317cb:	0f 22 d8             	mov    %eax,%cr3
   317ce:	90                   	nop
   317cf:	5d                   	pop    %ebp
   317d0:	c3                   	ret    

000317d1 <write_gdtr>:
   317d1:	55                   	push   %ebp
   317d2:	89 e5                	mov    %esp,%ebp
   317d4:	e8 6b e9 ff ff       	call   30144 <__x86.get_pc_thunk.ax>
   317d9:	05 27 b8 00 00       	add    $0xb827,%eax
   317de:	8b 55 0c             	mov    0xc(%ebp),%edx
   317e1:	4a                   	dec    %edx
   317e2:	66 89 90 8c 1e 01 00 	mov    %dx,0x11e8c(%eax)
   317e9:	8b 55 08             	mov    0x8(%ebp),%edx
   317ec:	66 89 90 8e 1e 01 00 	mov    %dx,0x11e8e(%eax)
   317f3:	8b 55 08             	mov    0x8(%ebp),%edx
   317f6:	c1 ea 10             	shr    $0x10,%edx
   317f9:	66 89 90 90 1e 01 00 	mov    %dx,0x11e90(%eax)
   31800:	8d 80 8c 1e 01 00    	lea    0x11e8c(%eax),%eax
   31806:	0f 01 10             	lgdtl  (%eax)
   31809:	90                   	nop
   3180a:	5d                   	pop    %ebp
   3180b:	c3                   	ret    

0003180c <get_kpdir>:
   3180c:	55                   	push   %ebp
   3180d:	89 e5                	mov    %esp,%ebp
   3180f:	e8 30 e9 ff ff       	call   30144 <__x86.get_pc_thunk.ax>
   31814:	05 ec b7 00 00       	add    $0xb7ec,%eax
   31819:	c7 c0 00 40 07 00    	mov    $0x74000,%eax
   3181f:	5d                   	pop    %ebp
   31820:	c3                   	ret    

00031821 <init_page>:
   31821:	55                   	push   %ebp
   31822:	89 e5                	mov    %esp,%ebp
   31824:	53                   	push   %ebx
   31825:	83 ec 24             	sub    $0x24,%esp
   31828:	e8 17 e9 ff ff       	call   30144 <__x86.get_pc_thunk.ax>
   3182d:	05 d3 b7 00 00       	add    $0xb7d3,%eax
   31832:	c7 c2 00 40 07 00    	mov    $0x74000,%edx
   31838:	89 55 e4             	mov    %edx,-0x1c(%ebp)
   3183b:	c7 c2 00 50 07 00    	mov    $0x75000,%edx
   31841:	89 55 f4             	mov    %edx,-0xc(%ebp)
   31844:	83 ec 04             	sub    $0x4,%esp
   31847:	68 00 10 00 00       	push   $0x1000
   3184c:	6a 00                	push   $0x0
   3184e:	ff 75 e4             	pushl  -0x1c(%ebp)
   31851:	89 c3                	mov    %eax,%ebx
   31853:	e8 f4 04 00 00       	call   31d4c <memset>
   31858:	83 c4 10             	add    $0x10,%esp
   3185b:	c7 45 e8 00 00 00 00 	movl   $0x0,-0x18(%ebp)
   31862:	c7 45 f0 00 00 00 00 	movl   $0x0,-0x10(%ebp)
   31869:	eb 6b                	jmp    318d6 <init_page+0xb5>
   3186b:	8b 45 f4             	mov    -0xc(%ebp),%eax
   3186e:	25 00 f0 ff ff       	and    $0xfffff000,%eax
   31873:	89 c2                	mov    %eax,%edx
   31875:	8b 45 f0             	mov    -0x10(%ebp),%eax
   31878:	8d 0c 85 00 00 00 00 	lea    0x0(,%eax,4),%ecx
   3187f:	8b 45 e4             	mov    -0x1c(%ebp),%eax
   31882:	01 c8                	add    %ecx,%eax
   31884:	83 ca 07             	or     $0x7,%edx
   31887:	89 10                	mov    %edx,(%eax)
   31889:	8b 45 f4             	mov    -0xc(%ebp),%eax
   3188c:	25 00 f0 ff ff       	and    $0xfffff000,%eax
   31891:	89 c2                	mov    %eax,%edx
   31893:	8b 45 f0             	mov    -0x10(%ebp),%eax
   31896:	8d 0c 85 00 00 00 00 	lea    0x0(,%eax,4),%ecx
   3189d:	8b 45 e4             	mov    -0x1c(%ebp),%eax
   318a0:	01 c8                	add    %ecx,%eax
   318a2:	83 ca 07             	or     $0x7,%edx
   318a5:	89 10                	mov    %edx,(%eax)
   318a7:	c7 45 ec 00 00 00 00 	movl   $0x0,-0x14(%ebp)
   318ae:	eb 1a                	jmp    318ca <init_page+0xa9>
   318b0:	8b 45 e8             	mov    -0x18(%ebp),%eax
   318b3:	c1 e0 0c             	shl    $0xc,%eax
   318b6:	83 c8 07             	or     $0x7,%eax
   318b9:	89 c2                	mov    %eax,%edx
   318bb:	8b 45 f4             	mov    -0xc(%ebp),%eax
   318be:	89 10                	mov    %edx,(%eax)
   318c0:	ff 45 e8             	incl   -0x18(%ebp)
   318c3:	83 45 f4 04          	addl   $0x4,-0xc(%ebp)
   318c7:	ff 45 ec             	incl   -0x14(%ebp)
   318ca:	81 7d ec ff 03 00 00 	cmpl   $0x3ff,-0x14(%ebp)
   318d1:	76 dd                	jbe    318b0 <init_page+0x8f>
   318d3:	ff 45 f0             	incl   -0x10(%ebp)
   318d6:	83 7d f0 1f          	cmpl   $0x1f,-0x10(%ebp)
   318da:	76 8f                	jbe    3186b <init_page+0x4a>
   318dc:	c7 45 dc 00 00 00 00 	movl   $0x0,-0x24(%ebp)
   318e3:	8b 45 e4             	mov    -0x1c(%ebp),%eax
   318e6:	c1 e8 0c             	shr    $0xc,%eax
   318e9:	25 ff ff 0f 00       	and    $0xfffff,%eax
   318ee:	c1 e0 0c             	shl    $0xc,%eax
   318f1:	89 c2                	mov    %eax,%edx
   318f3:	8b 45 dc             	mov    -0x24(%ebp),%eax
   318f6:	25 ff 0f 00 00       	and    $0xfff,%eax
   318fb:	09 d0                	or     %edx,%eax
   318fd:	89 45 dc             	mov    %eax,-0x24(%ebp)
   31900:	8b 45 dc             	mov    -0x24(%ebp),%eax
   31903:	83 ec 0c             	sub    $0xc,%esp
   31906:	50                   	push   %eax
   31907:	e8 af fe ff ff       	call   317bb <write_cr3>
   3190c:	83 c4 10             	add    $0x10,%esp
   3190f:	e8 76 fe ff ff       	call   3178a <read_cr0>
   31914:	89 45 e0             	mov    %eax,-0x20(%ebp)
   31917:	8a 45 e3             	mov    -0x1d(%ebp),%al
   3191a:	83 c8 80             	or     $0xffffff80,%eax
   3191d:	88 45 e3             	mov    %al,-0x1d(%ebp)
   31920:	8b 45 e0             	mov    -0x20(%ebp),%eax
   31923:	83 ec 0c             	sub    $0xc,%esp
   31926:	50                   	push   %eax
   31927:	e8 79 fe ff ff       	call   317a5 <write_cr0>
   3192c:	83 c4 10             	add    $0x10,%esp
   3192f:	90                   	nop
   31930:	8b 5d fc             	mov    -0x4(%ebp),%ebx
   31933:	c9                   	leave  
   31934:	c3                   	ret    

00031935 <set_segment>:
   31935:	55                   	push   %ebp
   31936:	89 e5                	mov    %esp,%ebp
   31938:	e8 07 e8 ff ff       	call   30144 <__x86.get_pc_thunk.ax>
   3193d:	05 c3 b6 00 00       	add    $0xb6c3,%eax
   31942:	8b 45 08             	mov    0x8(%ebp),%eax
   31945:	66 c7 00 ff ff       	movw   $0xffff,(%eax)
   3194a:	8b 45 08             	mov    0x8(%ebp),%eax
   3194d:	66 c7 40 02 00 00    	movw   $0x0,0x2(%eax)
   31953:	8b 45 08             	mov    0x8(%ebp),%eax
   31956:	c6 40 04 00          	movb   $0x0,0x4(%eax)
   3195a:	8b 45 10             	mov    0x10(%ebp),%eax
   3195d:	88 c2                	mov    %al,%dl
   3195f:	83 e2 0f             	and    $0xf,%edx
   31962:	8b 45 08             	mov    0x8(%ebp),%eax
   31965:	88 d1                	mov    %dl,%cl
   31967:	83 e1 0f             	and    $0xf,%ecx
   3196a:	8a 50 05             	mov    0x5(%eax),%dl
   3196d:	83 e2 f0             	and    $0xfffffff0,%edx
   31970:	09 ca                	or     %ecx,%edx
   31972:	88 50 05             	mov    %dl,0x5(%eax)
   31975:	8b 45 08             	mov    0x8(%ebp),%eax
   31978:	8a 50 05             	mov    0x5(%eax),%dl
   3197b:	83 ca 10             	or     $0x10,%edx
   3197e:	88 50 05             	mov    %dl,0x5(%eax)
   31981:	8b 45 0c             	mov    0xc(%ebp),%eax
   31984:	88 c2                	mov    %al,%dl
   31986:	83 e2 03             	and    $0x3,%edx
   31989:	8b 45 08             	mov    0x8(%ebp),%eax
   3198c:	83 e2 03             	and    $0x3,%edx
   3198f:	88 d1                	mov    %dl,%cl
   31991:	c1 e1 05             	shl    $0x5,%ecx
   31994:	8a 50 05             	mov    0x5(%eax),%dl
   31997:	83 e2 9f             	and    $0xffffff9f,%edx
   3199a:	09 ca                	or     %ecx,%edx
   3199c:	88 50 05             	mov    %dl,0x5(%eax)
   3199f:	8b 45 08             	mov    0x8(%ebp),%eax
   319a2:	8a 50 05             	mov    0x5(%eax),%dl
   319a5:	83 ca 80             	or     $0xffffff80,%edx
   319a8:	88 50 05             	mov    %dl,0x5(%eax)
   319ab:	8b 45 08             	mov    0x8(%ebp),%eax
   319ae:	8a 50 06             	mov    0x6(%eax),%dl
   319b1:	83 ca 0f             	or     $0xf,%edx
   319b4:	88 50 06             	mov    %dl,0x6(%eax)
   319b7:	8b 45 08             	mov    0x8(%ebp),%eax
   319ba:	8a 50 06             	mov    0x6(%eax),%dl
   319bd:	83 e2 ef             	and    $0xffffffef,%edx
   319c0:	88 50 06             	mov    %dl,0x6(%eax)
   319c3:	8b 45 08             	mov    0x8(%ebp),%eax
   319c6:	8a 50 06             	mov    0x6(%eax),%dl
   319c9:	83 e2 df             	and    $0xffffffdf,%edx
   319cc:	88 50 06             	mov    %dl,0x6(%eax)
   319cf:	8b 45 08             	mov    0x8(%ebp),%eax
   319d2:	8a 50 06             	mov    0x6(%eax),%dl
   319d5:	83 ca 40             	or     $0x40,%edx
   319d8:	88 50 06             	mov    %dl,0x6(%eax)
   319db:	8b 45 08             	mov    0x8(%ebp),%eax
   319de:	8a 50 06             	mov    0x6(%eax),%dl
   319e1:	83 ca 80             	or     $0xffffff80,%edx
   319e4:	88 50 06             	mov    %dl,0x6(%eax)
   319e7:	8b 45 08             	mov    0x8(%ebp),%eax
   319ea:	c6 40 07 00          	movb   $0x0,0x7(%eax)
   319ee:	90                   	nop
   319ef:	5d                   	pop    %ebp
   319f0:	c3                   	ret    

000319f1 <init_segment>:
   319f1:	55                   	push   %ebp
   319f2:	89 e5                	mov    %esp,%ebp
   319f4:	53                   	push   %ebx
   319f5:	83 ec 04             	sub    $0x4,%esp
   319f8:	e8 4b e7 ff ff       	call   30148 <__x86.get_pc_thunk.bx>
   319fd:	81 c3 03 b6 00 00    	add    $0xb603,%ebx
   31a03:	83 ec 04             	sub    $0x4,%esp
   31a06:	6a 18                	push   $0x18
   31a08:	6a 00                	push   $0x0
   31a0a:	c7 c0 00 30 07 00    	mov    $0x73000,%eax
   31a10:	50                   	push   %eax
   31a11:	e8 36 03 00 00       	call   31d4c <memset>
   31a16:	83 c4 10             	add    $0x10,%esp
   31a19:	83 ec 04             	sub    $0x4,%esp
   31a1c:	6a 0a                	push   $0xa
   31a1e:	6a 00                	push   $0x0
   31a20:	c7 c0 00 30 07 00    	mov    $0x73000,%eax
   31a26:	8d 40 08             	lea    0x8(%eax),%eax
   31a29:	50                   	push   %eax
   31a2a:	e8 06 ff ff ff       	call   31935 <set_segment>
   31a2f:	83 c4 10             	add    $0x10,%esp
   31a32:	83 ec 04             	sub    $0x4,%esp
   31a35:	6a 02                	push   $0x2
   31a37:	6a 00                	push   $0x0
   31a39:	c7 c0 00 30 07 00    	mov    $0x73000,%eax
   31a3f:	8d 40 10             	lea    0x10(%eax),%eax
   31a42:	50                   	push   %eax
   31a43:	e8 ed fe ff ff       	call   31935 <set_segment>
   31a48:	83 c4 10             	add    $0x10,%esp
   31a4b:	83 ec 08             	sub    $0x8,%esp
   31a4e:	6a 18                	push   $0x18
   31a50:	c7 c0 00 30 07 00    	mov    $0x73000,%eax
   31a56:	50                   	push   %eax
   31a57:	e8 75 fd ff ff       	call   317d1 <write_gdtr>
   31a5c:	83 c4 10             	add    $0x10,%esp
   31a5f:	90                   	nop
   31a60:	8b 5d fc             	mov    -0x4(%ebp),%ebx
   31a63:	c9                   	leave  
   31a64:	c3                   	ret    
   31a65:	66 90                	xchg   %ax,%ax
   31a67:	66 90                	xchg   %ax,%ax
   31a69:	66 90                	xchg   %ax,%ax
   31a6b:	66 90                	xchg   %ax,%ax
   31a6d:	66 90                	xchg   %ax,%ax
   31a6f:	90                   	nop

00031a70 <mm_malloc>:
   31a70:	55                   	push   %ebp
   31a71:	31 c0                	xor    %eax,%eax
   31a73:	89 e5                	mov    %esp,%ebp
   31a75:	57                   	push   %edi
   31a76:	56                   	push   %esi
   31a77:	53                   	push   %ebx
   31a78:	83 ec 3c             	sub    $0x3c,%esp
   31a7b:	8b 5d 0c             	mov    0xc(%ebp),%ebx
   31a7e:	85 db                	test   %ebx,%ebx
   31a80:	0f 8e 36 02 00 00    	jle    31cbc <mm_malloc+0x24c>
   31a86:	e8 f1 fa ff ff       	call   3157c <get_updir>
   31a8b:	89 c6                	mov    %eax,%esi
   31a8d:	e8 ff fa ff ff       	call   31591 <get_ucr3>
   31a92:	8b 55 08             	mov    0x8(%ebp),%edx
   31a95:	8d 5c 1a ff          	lea    -0x1(%edx,%ebx,1),%ebx
   31a99:	89 5d e0             	mov    %ebx,-0x20(%ebp)
   31a9c:	89 45 dc             	mov    %eax,-0x24(%ebp)
   31a9f:	b8 00 10 00 00       	mov    $0x1000,%eax
   31aa4:	29 d0                	sub    %edx,%eax
   31aa6:	89 da                	mov    %ebx,%edx
   31aa8:	81 e2 00 f0 ff ff    	and    $0xfffff000,%edx
   31aae:	01 d0                	add    %edx,%eax
   31ab0:	85 c0                	test   %eax,%eax
   31ab2:	0f 8e c0 00 00 00    	jle    31b78 <mm_malloc+0x108>
   31ab8:	8b 55 08             	mov    0x8(%ebp),%edx
   31abb:	83 e8 01             	sub    $0x1,%eax
   31abe:	89 f7                	mov    %esi,%edi
   31ac0:	25 00 f0 ff ff       	and    $0xfffff000,%eax
   31ac5:	8d 84 02 00 10 00 00 	lea    0x1000(%edx,%eax,1),%eax
   31acc:	89 d3                	mov    %edx,%ebx
   31ace:	89 45 e4             	mov    %eax,-0x1c(%ebp)
   31ad1:	eb 51                	jmp    31b24 <mm_malloc+0xb4>
   31ad3:	90                   	nop
   31ad4:	8d 74 26 00          	lea    0x0(%esi,%eiz,1),%esi
   31ad8:	8b 31                	mov    (%ecx),%esi
   31ada:	81 e6 00 f0 ff ff    	and    $0xfffff000,%esi
   31ae0:	81 ee 00 00 00 40    	sub    $0x40000000,%esi
   31ae6:	89 d8                	mov    %ebx,%eax
   31ae8:	c1 e8 0a             	shr    $0xa,%eax
   31aeb:	25 fc 0f 00 00       	and    $0xffc,%eax
   31af0:	01 c6                	add    %eax,%esi
   31af2:	f6 06 01             	testb  $0x1,(%esi)
   31af5:	75 22                	jne    31b19 <mm_malloc+0xa9>
   31af7:	a1 20 d0 03 00       	mov    0x3d020,%eax
   31afc:	3d ff 7f 00 00       	cmp    $0x7fff,%eax
   31b01:	0f 8f c1 01 00 00    	jg     31cc8 <mm_malloc+0x258>
   31b07:	89 c1                	mov    %eax,%ecx
   31b09:	83 c0 01             	add    $0x1,%eax
   31b0c:	c1 e1 0c             	shl    $0xc,%ecx
   31b0f:	83 c9 07             	or     $0x7,%ecx
   31b12:	89 0e                	mov    %ecx,(%esi)
   31b14:	a3 20 d0 03 00       	mov    %eax,0x3d020
   31b19:	81 c3 00 10 00 00    	add    $0x1000,%ebx
   31b1f:	3b 5d e4             	cmp    -0x1c(%ebp),%ebx
   31b22:	74 54                	je     31b78 <mm_malloc+0x108>
   31b24:	89 d8                	mov    %ebx,%eax
   31b26:	c1 e8 16             	shr    $0x16,%eax
   31b29:	8d 0c 87             	lea    (%edi,%eax,4),%ecx
   31b2c:	f6 01 01             	testb  $0x1,(%ecx)
   31b2f:	75 a7                	jne    31ad8 <mm_malloc+0x68>
   31b31:	a1 00 f0 04 00       	mov    0x4f000,%eax
   31b36:	89 c6                	mov    %eax,%esi
   31b38:	83 c0 01             	add    $0x1,%eax
   31b3b:	c1 e6 0c             	shl    $0xc,%esi
   31b3e:	81 c6 00 00 05 00    	add    $0x50000,%esi
   31b44:	a3 00 f0 04 00       	mov    %eax,0x4f000
   31b49:	8d 86 00 00 00 40    	lea    0x40000000(%esi),%eax
   31b4f:	25 00 f0 ff ff       	and    $0xfffff000,%eax
   31b54:	83 c8 07             	or     $0x7,%eax
   31b57:	89 01                	mov    %eax,(%ecx)
   31b59:	c7 44 24 08 00 10 00 	movl   $0x1000,0x8(%esp)
   31b60:	00 
   31b61:	c7 44 24 04 00 00 00 	movl   $0x0,0x4(%esp)
   31b68:	00 
   31b69:	89 34 24             	mov    %esi,(%esp)
   31b6c:	e8 db 01 00 00       	call   31d4c <memset>
   31b71:	e9 70 ff ff ff       	jmp    31ae6 <mm_malloc+0x76>
   31b76:	66 90                	xchg   %ax,%ax
   31b78:	8b 5d dc             	mov    -0x24(%ebp),%ebx
   31b7b:	8b 45 e0             	mov    -0x20(%ebp),%eax
   31b7e:	81 eb 00 00 00 40    	sub    $0x40000000,%ebx
   31b84:	81 e3 00 f0 ff ff    	and    $0xfffff000,%ebx
   31b8a:	c1 e8 16             	shr    $0x16,%eax
   31b8d:	8b 34 83             	mov    (%ebx,%eax,4),%esi
   31b90:	f7 c6 01 00 00 00    	test   $0x1,%esi
   31b96:	75 32                	jne    31bca <mm_malloc+0x15a>
   31b98:	c7 44 24 10 54 98 03 	movl   $0x39854,0x10(%esp)
   31b9f:	00 
   31ba0:	c7 44 24 0c ba 98 03 	movl   $0x398ba,0xc(%esp)
   31ba7:	00 
   31ba8:	c7 44 24 08 11 00 00 	movl   $0x11,0x8(%esp)
   31baf:	00 
   31bb0:	c7 44 24 04 43 98 03 	movl   $0x39843,0x4(%esp)
   31bb7:	00 
   31bb8:	c7 04 24 64 98 03 00 	movl   $0x39864,(%esp)
   31bbf:	e8 72 ee ff ff       	call   30a36 <printk>
   31bc4:	b8 01 00 00 00       	mov    $0x1,%eax
   31bc9:	82                   	nemu_trap 
   31bca:	8b 55 e0             	mov    -0x20(%ebp),%edx
   31bcd:	8d 86 00 00 00 c0    	lea    -0x40000000(%esi),%eax
   31bd3:	25 00 f0 ff ff       	and    $0xfffff000,%eax
   31bd8:	c1 ea 0c             	shr    $0xc,%edx
   31bdb:	81 e2 ff 03 00 00    	and    $0x3ff,%edx
   31be1:	f6 04 90 01          	testb  $0x1,(%eax,%edx,4)
   31be5:	75 32                	jne    31c19 <mm_malloc+0x1a9>
   31be7:	c7 44 24 10 5c 98 03 	movl   $0x3985c,0x10(%esp)
   31bee:	00 
   31bef:	c7 44 24 0c ba 98 03 	movl   $0x398ba,0xc(%esp)
   31bf6:	00 
   31bf7:	c7 44 24 08 13 00 00 	movl   $0x13,0x8(%esp)
   31bfe:	00 
   31bff:	c7 44 24 04 43 98 03 	movl   $0x39843,0x4(%esp)
   31c06:	00 
   31c07:	c7 04 24 64 98 03 00 	movl   $0x39864,(%esp)
   31c0e:	e8 23 ee ff ff       	call   30a36 <printk>
   31c13:	b8 01 00 00 00       	mov    $0x1,%eax
   31c18:	82                   	nemu_trap 
   31c19:	8b 45 08             	mov    0x8(%ebp),%eax
   31c1c:	c1 e8 16             	shr    $0x16,%eax
   31c1f:	8b 1c 83             	mov    (%ebx,%eax,4),%ebx
   31c22:	f6 c3 01             	test   $0x1,%bl
   31c25:	75 32                	jne    31c59 <mm_malloc+0x1e9>
   31c27:	c7 44 24 10 54 98 03 	movl   $0x39854,0x10(%esp)
   31c2e:	00 
   31c2f:	c7 44 24 0c ba 98 03 	movl   $0x398ba,0xc(%esp)
   31c36:	00 
   31c37:	c7 44 24 08 11 00 00 	movl   $0x11,0x8(%esp)
   31c3e:	00 
   31c3f:	c7 44 24 04 43 98 03 	movl   $0x39843,0x4(%esp)
   31c46:	00 
   31c47:	c7 04 24 64 98 03 00 	movl   $0x39864,(%esp)
   31c4e:	e8 e3 ed ff ff       	call   30a36 <printk>
   31c53:	b8 01 00 00 00       	mov    $0x1,%eax
   31c58:	82                   	nemu_trap 
   31c59:	8b 55 08             	mov    0x8(%ebp),%edx
   31c5c:	8d 83 00 00 00 c0    	lea    -0x40000000(%ebx),%eax
   31c62:	25 00 f0 ff ff       	and    $0xfffff000,%eax
   31c67:	c1 ea 0c             	shr    $0xc,%edx
   31c6a:	81 e2 ff 03 00 00    	and    $0x3ff,%edx
   31c70:	8b 1c 90             	mov    (%eax,%edx,4),%ebx
   31c73:	f6 c3 01             	test   $0x1,%bl
   31c76:	75 32                	jne    31caa <mm_malloc+0x23a>
   31c78:	c7 44 24 10 5c 98 03 	movl   $0x3985c,0x10(%esp)
   31c7f:	00 
   31c80:	c7 44 24 0c ba 98 03 	movl   $0x398ba,0xc(%esp)
   31c87:	00 
   31c88:	c7 44 24 08 13 00 00 	movl   $0x13,0x8(%esp)
   31c8f:	00 
   31c90:	c7 44 24 04 43 98 03 	movl   $0x39843,0x4(%esp)
   31c97:	00 
   31c98:	c7 04 24 64 98 03 00 	movl   $0x39864,(%esp)
   31c9f:	e8 92 ed ff ff       	call   30a36 <printk>
   31ca4:	b8 01 00 00 00       	mov    $0x1,%eax
   31ca9:	82                   	nemu_trap 
   31caa:	8b 55 08             	mov    0x8(%ebp),%edx
   31cad:	89 d8                	mov    %ebx,%eax
   31caf:	25 00 f0 ff ff       	and    $0xfffff000,%eax
   31cb4:	81 e2 ff 0f 00 00    	and    $0xfff,%edx
   31cba:	09 d0                	or     %edx,%eax
   31cbc:	83 c4 3c             	add    $0x3c,%esp
   31cbf:	5b                   	pop    %ebx
   31cc0:	5e                   	pop    %esi
   31cc1:	5f                   	pop    %edi
   31cc2:	5d                   	pop    %ebp
   31cc3:	c3                   	ret    
   31cc4:	8d 74 26 00          	lea    0x0(%esi,%eiz,1),%esi
   31cc8:	c7 44 24 10 30 98 03 	movl   $0x39830,0x10(%esp)
   31ccf:	00 
   31cd0:	c7 44 24 0c b0 98 03 	movl   $0x398b0,0xc(%esp)
   31cd7:	00 
   31cd8:	c7 44 24 08 31 00 00 	movl   $0x31,0x8(%esp)
   31cdf:	00 
   31ce0:	c7 44 24 04 43 98 03 	movl   $0x39843,0x4(%esp)
   31ce7:	00 
   31ce8:	c7 04 24 64 98 03 00 	movl   $0x39864,(%esp)
   31cef:	e8 42 ed ff ff       	call   30a36 <printk>
   31cf4:	b8 01 00 00 00       	mov    $0x1,%eax
   31cf9:	82                   	nemu_trap 
   31cfa:	a1 20 d0 03 00       	mov    0x3d020,%eax
   31cff:	e9 03 fe ff ff       	jmp    31b07 <mm_malloc+0x97>

00031d04 <memcpy>:
   31d04:	55                   	push   %ebp
   31d05:	89 e5                	mov    %esp,%ebp
   31d07:	56                   	push   %esi
   31d08:	57                   	push   %edi
   31d09:	53                   	push   %ebx
   31d0a:	8b 7d 08             	mov    0x8(%ebp),%edi
   31d0d:	8b 4d 10             	mov    0x10(%ebp),%ecx
   31d10:	8b 75 0c             	mov    0xc(%ebp),%esi
   31d13:	fc                   	cld    
   31d14:	83 f9 08             	cmp    $0x8,%ecx
   31d17:	76 26                	jbe    31d3f <memcpy+0x3b>
   31d19:	89 fa                	mov    %edi,%edx
   31d1b:	89 cb                	mov    %ecx,%ebx
   31d1d:	83 e2 03             	and    $0x3,%edx
   31d20:	74 10                	je     31d32 <memcpy+0x2e>
   31d22:	b9 04 00 00 00       	mov    $0x4,%ecx
   31d27:	29 d1                	sub    %edx,%ecx
   31d29:	83 e1 03             	and    $0x3,%ecx
   31d2c:	29 cb                	sub    %ecx,%ebx
   31d2e:	f3 a4                	rep movsb %ds:(%esi),%es:(%edi)
   31d30:	89 d9                	mov    %ebx,%ecx
   31d32:	c1 e9 02             	shr    $0x2,%ecx
   31d35:	8d 76 00             	lea    0x0(%esi),%esi
   31d38:	f3 a5                	rep movsl %ds:(%esi),%es:(%edi)
   31d3a:	89 d9                	mov    %ebx,%ecx
   31d3c:	83 e1 03             	and    $0x3,%ecx
   31d3f:	f3 a4                	rep movsb %ds:(%esi),%es:(%edi)
   31d41:	8b 45 08             	mov    0x8(%ebp),%eax
   31d44:	8d 65 f4             	lea    -0xc(%ebp),%esp
   31d47:	5b                   	pop    %ebx
   31d48:	5f                   	pop    %edi
   31d49:	5e                   	pop    %esi
   31d4a:	c9                   	leave  
   31d4b:	c3                   	ret    

00031d4c <memset>:
   31d4c:	55                   	push   %ebp
   31d4d:	89 e5                	mov    %esp,%ebp
   31d4f:	57                   	push   %edi
   31d50:	8b 7d 08             	mov    0x8(%ebp),%edi
   31d53:	0f b6 45 0c          	movzbl 0xc(%ebp),%eax
   31d57:	8b 4d 10             	mov    0x10(%ebp),%ecx
   31d5a:	fc                   	cld    
   31d5b:	83 f9 10             	cmp    $0x10,%ecx
   31d5e:	76 69                	jbe    31dc9 <memset+0x7d>
   31d60:	f7 c7 07 00 00 00    	test   $0x7,%edi
   31d66:	74 4c                	je     31db4 <memset+0x68>
   31d68:	88 07                	mov    %al,(%edi)
   31d6a:	47                   	inc    %edi
   31d6b:	49                   	dec    %ecx
   31d6c:	f7 c7 07 00 00 00    	test   $0x7,%edi
   31d72:	74 40                	je     31db4 <memset+0x68>
   31d74:	88 07                	mov    %al,(%edi)
   31d76:	47                   	inc    %edi
   31d77:	49                   	dec    %ecx
   31d78:	f7 c7 07 00 00 00    	test   $0x7,%edi
   31d7e:	74 34                	je     31db4 <memset+0x68>
   31d80:	88 07                	mov    %al,(%edi)
   31d82:	47                   	inc    %edi
   31d83:	49                   	dec    %ecx
   31d84:	f7 c7 07 00 00 00    	test   $0x7,%edi
   31d8a:	74 28                	je     31db4 <memset+0x68>
   31d8c:	88 07                	mov    %al,(%edi)
   31d8e:	47                   	inc    %edi
   31d8f:	49                   	dec    %ecx
   31d90:	f7 c7 07 00 00 00    	test   $0x7,%edi
   31d96:	74 1c                	je     31db4 <memset+0x68>
   31d98:	88 07                	mov    %al,(%edi)
   31d9a:	47                   	inc    %edi
   31d9b:	49                   	dec    %ecx
   31d9c:	f7 c7 07 00 00 00    	test   $0x7,%edi
   31da2:	74 10                	je     31db4 <memset+0x68>
   31da4:	88 07                	mov    %al,(%edi)
   31da6:	47                   	inc    %edi
   31da7:	49                   	dec    %ecx
   31da8:	f7 c7 07 00 00 00    	test   $0x7,%edi
   31dae:	74 04                	je     31db4 <memset+0x68>
   31db0:	88 07                	mov    %al,(%edi)
   31db2:	47                   	inc    %edi
   31db3:	49                   	dec    %ecx
   31db4:	88 c4                	mov    %al,%ah
   31db6:	89 c2                	mov    %eax,%edx
   31db8:	c1 e2 10             	shl    $0x10,%edx
   31dbb:	09 d0                	or     %edx,%eax
   31dbd:	89 ca                	mov    %ecx,%edx
   31dbf:	c1 e9 02             	shr    $0x2,%ecx
   31dc2:	83 e2 03             	and    $0x3,%edx
   31dc5:	f3 ab                	rep stos %eax,%es:(%edi)
   31dc7:	89 d1                	mov    %edx,%ecx
   31dc9:	f3 aa                	rep stos %al,%es:(%edi)
   31dcb:	8b 45 08             	mov    0x8(%ebp),%eax
   31dce:	8d 65 fc             	lea    -0x4(%ebp),%esp
   31dd1:	5f                   	pop    %edi
   31dd2:	c9                   	leave  
   31dd3:	c3                   	ret    
   31dd4:	66 90                	xchg   %ax,%ax
   31dd6:	66 90                	xchg   %ax,%ax
   31dd8:	66 90                	xchg   %ax,%ax
   31dda:	66 90                	xchg   %ax,%ax
   31ddc:	66 90                	xchg   %ax,%ax
   31dde:	66 90                	xchg   %ax,%ax

00031de0 <_vsnprintf_r>:
   31de0:	55                   	push   %ebp
   31de1:	89 e5                	mov    %esp,%ebp
   31de3:	56                   	push   %esi
   31de4:	53                   	push   %ebx
   31de5:	83 c4 80             	add    $0xffffff80,%esp
   31de8:	8b 5d 10             	mov    0x10(%ebp),%ebx
   31deb:	8b 75 08             	mov    0x8(%ebp),%esi
   31dee:	8b 45 0c             	mov    0xc(%ebp),%eax
   31df1:	85 db                	test   %ebx,%ebx
   31df3:	78 63                	js     31e58 <_vsnprintf_r+0x78>
   31df5:	ba 08 02 00 00       	mov    $0x208,%edx
   31dfa:	b9 ff ff ff ff       	mov    $0xffffffff,%ecx
   31dff:	66 89 55 9c          	mov    %dx,-0x64(%ebp)
   31e03:	8d 53 ff             	lea    -0x1(%ebx),%edx
   31e06:	89 45 90             	mov    %eax,-0x70(%ebp)
   31e09:	89 45 a0             	mov    %eax,-0x60(%ebp)
   31e0c:	31 c0                	xor    %eax,%eax
   31e0e:	85 db                	test   %ebx,%ebx
   31e10:	0f 45 c2             	cmovne %edx,%eax
   31e13:	89 45 98             	mov    %eax,-0x68(%ebp)
   31e16:	89 45 a4             	mov    %eax,-0x5c(%ebp)
   31e19:	8b 45 18             	mov    0x18(%ebp),%eax
   31e1c:	89 34 24             	mov    %esi,(%esp)
   31e1f:	66 89 4d 9e          	mov    %cx,-0x62(%ebp)
   31e23:	89 44 24 0c          	mov    %eax,0xc(%esp)
   31e27:	8b 45 14             	mov    0x14(%ebp),%eax
   31e2a:	89 44 24 08          	mov    %eax,0x8(%esp)
   31e2e:	8d 45 90             	lea    -0x70(%ebp),%eax
   31e31:	89 44 24 04          	mov    %eax,0x4(%esp)
   31e35:	e8 86 00 00 00       	call   31ec0 <_svfprintf_r>
   31e3a:	83 f8 ff             	cmp    $0xffffffff,%eax
   31e3d:	7c 11                	jl     31e50 <_vsnprintf_r+0x70>
   31e3f:	85 db                	test   %ebx,%ebx
   31e41:	74 06                	je     31e49 <_vsnprintf_r+0x69>
   31e43:	8b 55 90             	mov    -0x70(%ebp),%edx
   31e46:	c6 02 00             	movb   $0x0,(%edx)
   31e49:	83 ec 80             	sub    $0xffffff80,%esp
   31e4c:	5b                   	pop    %ebx
   31e4d:	5e                   	pop    %esi
   31e4e:	5d                   	pop    %ebp
   31e4f:	c3                   	ret    
   31e50:	c7 06 8b 00 00 00    	movl   $0x8b,(%esi)
   31e56:	eb e7                	jmp    31e3f <_vsnprintf_r+0x5f>
   31e58:	c7 06 8b 00 00 00    	movl   $0x8b,(%esi)
   31e5e:	b8 ff ff ff ff       	mov    $0xffffffff,%eax
   31e63:	eb e4                	jmp    31e49 <_vsnprintf_r+0x69>
   31e65:	8d 74 26 00          	lea    0x0(%esi,%eiz,1),%esi
   31e69:	8d bc 27 00 00 00 00 	lea    0x0(%edi,%eiz,1),%edi

00031e70 <vsnprintf>:
   31e70:	55                   	push   %ebp
   31e71:	89 e5                	mov    %esp,%ebp
   31e73:	83 ec 28             	sub    $0x28,%esp
   31e76:	e8 35 00 00 00       	call   31eb0 <__getreent>
   31e7b:	8b 55 14             	mov    0x14(%ebp),%edx
   31e7e:	89 54 24 10          	mov    %edx,0x10(%esp)
   31e82:	8b 55 10             	mov    0x10(%ebp),%edx
   31e85:	89 04 24             	mov    %eax,(%esp)
   31e88:	89 54 24 0c          	mov    %edx,0xc(%esp)
   31e8c:	8b 55 0c             	mov    0xc(%ebp),%edx
   31e8f:	89 54 24 08          	mov    %edx,0x8(%esp)
   31e93:	8b 55 08             	mov    0x8(%ebp),%edx
   31e96:	89 54 24 04          	mov    %edx,0x4(%esp)
   31e9a:	e8 41 ff ff ff       	call   31de0 <_vsnprintf_r>
   31e9f:	c9                   	leave  
   31ea0:	c3                   	ret    
   31ea1:	66 90                	xchg   %ax,%ax
   31ea3:	66 90                	xchg   %ax,%ax
   31ea5:	66 90                	xchg   %ax,%ax
   31ea7:	66 90                	xchg   %ax,%ax
   31ea9:	66 90                	xchg   %ax,%ax
   31eab:	66 90                	xchg   %ax,%ax
   31ead:	66 90                	xchg   %ax,%ax
   31eaf:	90                   	nop

00031eb0 <__getreent>:
   31eb0:	55                   	push   %ebp
   31eb1:	a1 40 d0 03 00       	mov    0x3d040,%eax
   31eb6:	89 e5                	mov    %esp,%ebp
   31eb8:	5d                   	pop    %ebp
   31eb9:	c3                   	ret    
   31eba:	66 90                	xchg   %ax,%ax
   31ebc:	66 90                	xchg   %ax,%ax
   31ebe:	66 90                	xchg   %ax,%ax

00031ec0 <_svfprintf_r>:
   31ec0:	55                   	push   %ebp
   31ec1:	89 e5                	mov    %esp,%ebp
   31ec3:	57                   	push   %edi
   31ec4:	56                   	push   %esi
   31ec5:	53                   	push   %ebx
   31ec6:	81 ec 1c 01 00 00    	sub    $0x11c,%esp
   31ecc:	8b 45 08             	mov    0x8(%ebp),%eax
   31ecf:	89 04 24             	mov    %eax,(%esp)
   31ed2:	e8 89 33 00 00       	call   35260 <_localeconv_r>
   31ed7:	8b 00                	mov    (%eax),%eax
   31ed9:	89 04 24             	mov    %eax,(%esp)
   31edc:	89 85 0c ff ff ff    	mov    %eax,-0xf4(%ebp)
   31ee2:	e8 d9 4a 00 00       	call   369c0 <strlen>
   31ee7:	89 85 08 ff ff ff    	mov    %eax,-0xf8(%ebp)
   31eed:	8b 45 0c             	mov    0xc(%ebp),%eax
   31ef0:	f6 40 0c 80          	testb  $0x80,0xc(%eax)
   31ef4:	74 0b                	je     31f01 <_svfprintf_r+0x41>
   31ef6:	8b 40 10             	mov    0x10(%eax),%eax
   31ef9:	85 c0                	test   %eax,%eax
   31efb:	0f 84 62 18 00 00    	je     33763 <_svfprintf_r+0x18a3>
   31f01:	8d 45 a8             	lea    -0x58(%ebp),%eax
   31f04:	8d 55 a7             	lea    -0x59(%ebp),%edx
   31f07:	89 c7                	mov    %eax,%edi
   31f09:	89 85 74 ff ff ff    	mov    %eax,-0x8c(%ebp)
   31f0f:	d9 ee                	fldz   
   31f11:	29 d0                	sub    %edx,%eax
   31f13:	c7 85 7c ff ff ff 00 	movl   $0x0,-0x84(%ebp)
   31f1a:	00 00 00 
   31f1d:	dd 9d 10 ff ff ff    	fstpl  -0xf0(%ebp)
   31f23:	c7 85 78 ff ff ff 00 	movl   $0x0,-0x88(%ebp)
   31f2a:	00 00 00 
   31f2d:	c7 85 1c ff ff ff 00 	movl   $0x0,-0xe4(%ebp)
   31f34:	00 00 00 
   31f37:	c7 85 18 ff ff ff 00 	movl   $0x0,-0xe8(%ebp)
   31f3e:	00 00 00 
   31f41:	c7 85 04 ff ff ff 00 	movl   $0x0,-0xfc(%ebp)
   31f48:	00 00 00 
   31f4b:	c7 85 34 ff ff ff 00 	movl   $0x0,-0xcc(%ebp)
   31f52:	00 00 00 
   31f55:	89 85 00 ff ff ff    	mov    %eax,-0x100(%ebp)
   31f5b:	8b 45 10             	mov    0x10(%ebp),%eax
   31f5e:	8b 5d 10             	mov    0x10(%ebp),%ebx
   31f61:	0f b6 00             	movzbl (%eax),%eax
   31f64:	3c 25                	cmp    $0x25,%al
   31f66:	74 4d                	je     31fb5 <_svfprintf_r+0xf5>
   31f68:	84 c0                	test   %al,%al
   31f6a:	75 08                	jne    31f74 <_svfprintf_r+0xb4>
   31f6c:	eb 47                	jmp    31fb5 <_svfprintf_r+0xf5>
   31f6e:	66 90                	xchg   %ax,%ax
   31f70:	84 c0                	test   %al,%al
   31f72:	74 0a                	je     31f7e <_svfprintf_r+0xbe>
   31f74:	83 c3 01             	add    $0x1,%ebx
   31f77:	0f b6 03             	movzbl (%ebx),%eax
   31f7a:	3c 25                	cmp    $0x25,%al
   31f7c:	75 f2                	jne    31f70 <_svfprintf_r+0xb0>
   31f7e:	89 de                	mov    %ebx,%esi
   31f80:	2b 75 10             	sub    0x10(%ebp),%esi
   31f83:	74 30                	je     31fb5 <_svfprintf_r+0xf5>
   31f85:	8b 45 10             	mov    0x10(%ebp),%eax
   31f88:	83 c7 08             	add    $0x8,%edi
   31f8b:	89 77 fc             	mov    %esi,-0x4(%edi)
   31f8e:	01 b5 7c ff ff ff    	add    %esi,-0x84(%ebp)
   31f94:	89 47 f8             	mov    %eax,-0x8(%edi)
   31f97:	8b 85 78 ff ff ff    	mov    -0x88(%ebp),%eax
   31f9d:	83 c0 01             	add    $0x1,%eax
   31fa0:	83 f8 07             	cmp    $0x7,%eax
   31fa3:	89 85 78 ff ff ff    	mov    %eax,-0x88(%ebp)
   31fa9:	0f 8f 91 00 00 00    	jg     32040 <_svfprintf_r+0x180>
   31faf:	01 b5 34 ff ff ff    	add    %esi,-0xcc(%ebp)
   31fb5:	80 3b 00             	cmpb   $0x0,(%ebx)
   31fb8:	0f 84 aa 00 00 00    	je     32068 <_svfprintf_r+0x1a8>
   31fbe:	8d 43 01             	lea    0x1(%ebx),%eax
   31fc1:	be 20 00 00 00       	mov    $0x20,%esi
   31fc6:	c6 85 59 ff ff ff 00 	movb   $0x0,-0xa7(%ebp)
   31fcd:	31 db                	xor    %ebx,%ebx
   31fcf:	c7 85 44 ff ff ff ff 	movl   $0xffffffff,-0xbc(%ebp)
   31fd6:	ff ff ff 
   31fd9:	c7 85 40 ff ff ff 00 	movl   $0x0,-0xc0(%ebp)
   31fe0:	00 00 00 
   31fe3:	c7 85 4c ff ff ff 00 	movl   $0x0,-0xb4(%ebp)
   31fea:	00 00 00 
   31fed:	8d 48 01             	lea    0x1(%eax),%ecx
   31ff0:	0f be 00             	movsbl (%eax),%eax
   31ff3:	8d 50 e0             	lea    -0x20(%eax),%edx
   31ff6:	83 fa 58             	cmp    $0x58,%edx
   31ff9:	0f 87 8f 07 00 00    	ja     3278e <_svfprintf_r+0x8ce>
   31fff:	ff 24 95 04 99 03 00 	jmp    *0x39904(,%edx,4)
   32006:	66 90                	xchg   %ax,%ax
   32008:	83 8d 4c ff ff ff 10 	orl    $0x10,-0xb4(%ebp)
   3200f:	89 c8                	mov    %ecx,%eax
   32011:	eb da                	jmp    31fed <_svfprintf_r+0x12d>
   32013:	8b 45 14             	mov    0x14(%ebp),%eax
   32016:	8b 55 14             	mov    0x14(%ebp),%edx
   32019:	8b 00                	mov    (%eax),%eax
   3201b:	83 c2 04             	add    $0x4,%edx
   3201e:	89 55 14             	mov    %edx,0x14(%ebp)
   32021:	85 c0                	test   %eax,%eax
   32023:	89 85 40 ff ff ff    	mov    %eax,-0xc0(%ebp)
   32029:	79 e4                	jns    3200f <_svfprintf_r+0x14f>
   3202b:	f7 9d 40 ff ff ff    	negl   -0xc0(%ebp)
   32031:	83 8d 4c ff ff ff 04 	orl    $0x4,-0xb4(%ebp)
   32038:	89 c8                	mov    %ecx,%eax
   3203a:	eb b1                	jmp    31fed <_svfprintf_r+0x12d>
   3203c:	8d 74 26 00          	lea    0x0(%esi,%eiz,1),%esi
   32040:	8d 85 74 ff ff ff    	lea    -0x8c(%ebp),%eax
   32046:	89 44 24 08          	mov    %eax,0x8(%esp)
   3204a:	8b 45 0c             	mov    0xc(%ebp),%eax
   3204d:	89 44 24 04          	mov    %eax,0x4(%esp)
   32051:	8b 45 08             	mov    0x8(%ebp),%eax
   32054:	89 04 24             	mov    %eax,(%esp)
   32057:	e8 e4 49 00 00       	call   36a40 <__ssprint_r>
   3205c:	85 c0                	test   %eax,%eax
   3205e:	75 30                	jne    32090 <_svfprintf_r+0x1d0>
   32060:	8d 7d a8             	lea    -0x58(%ebp),%edi
   32063:	e9 47 ff ff ff       	jmp    31faf <_svfprintf_r+0xef>
   32068:	8b 85 7c ff ff ff    	mov    -0x84(%ebp),%eax
   3206e:	85 c0                	test   %eax,%eax
   32070:	74 1e                	je     32090 <_svfprintf_r+0x1d0>
   32072:	8d 85 74 ff ff ff    	lea    -0x8c(%ebp),%eax
   32078:	89 44 24 08          	mov    %eax,0x8(%esp)
   3207c:	8b 45 0c             	mov    0xc(%ebp),%eax
   3207f:	89 44 24 04          	mov    %eax,0x4(%esp)
   32083:	8b 45 08             	mov    0x8(%ebp),%eax
   32086:	89 04 24             	mov    %eax,(%esp)
   32089:	e8 b2 49 00 00       	call   36a40 <__ssprint_r>
   3208e:	66 90                	xchg   %ax,%ax
   32090:	8b 55 0c             	mov    0xc(%ebp),%edx
   32093:	b8 ff ff ff ff       	mov    $0xffffffff,%eax
   32098:	f6 42 0c 40          	testb  $0x40,0xc(%edx)
   3209c:	0f 44 85 34 ff ff ff 	cmove  -0xcc(%ebp),%eax
   320a3:	81 c4 1c 01 00 00    	add    $0x11c,%esp
   320a9:	5b                   	pop    %ebx
   320aa:	5e                   	pop    %esi
   320ab:	5f                   	pop    %edi
   320ac:	5d                   	pop    %ebp
   320ad:	c3                   	ret    
   320ae:	bb 2b 00 00 00       	mov    $0x2b,%ebx
   320b3:	89 c8                	mov    %ecx,%eax
   320b5:	e9 33 ff ff ff       	jmp    31fed <_svfprintf_r+0x12d>
   320ba:	89 85 24 ff ff ff    	mov    %eax,-0xdc(%ebp)
   320c0:	8b 45 14             	mov    0x14(%ebp),%eax
   320c3:	89 4d 10             	mov    %ecx,0x10(%ebp)
   320c6:	c6 85 59 ff ff ff 00 	movb   $0x0,-0xa7(%ebp)
   320cd:	8d 70 04             	lea    0x4(%eax),%esi
   320d0:	8b 00                	mov    (%eax),%eax
   320d2:	85 c0                	test   %eax,%eax
   320d4:	89 85 28 ff ff ff    	mov    %eax,-0xd8(%ebp)
   320da:	0f 84 7f 18 00 00    	je     3395f <_svfprintf_r+0x1a9f>
   320e0:	8b 85 44 ff ff ff    	mov    -0xbc(%ebp),%eax
   320e6:	85 c0                	test   %eax,%eax
   320e8:	0f 88 b6 17 00 00    	js     338a4 <_svfprintf_r+0x19e4>
   320ee:	89 44 24 08          	mov    %eax,0x8(%esp)
   320f2:	8b 85 28 ff ff ff    	mov    -0xd8(%ebp),%eax
   320f8:	c7 44 24 04 00 00 00 	movl   $0x0,0x4(%esp)
   320ff:	00 
   32100:	89 04 24             	mov    %eax,(%esp)
   32103:	e8 f8 38 00 00       	call   35a00 <memchr>
   32108:	85 c0                	test   %eax,%eax
   3210a:	0f 84 a0 19 00 00    	je     33ab0 <_svfprintf_r+0x1bf0>
   32110:	8b 95 44 ff ff ff    	mov    -0xbc(%ebp),%edx
   32116:	2b 85 28 ff ff ff    	sub    -0xd8(%ebp),%eax
   3211c:	39 d0                	cmp    %edx,%eax
   3211e:	0f 4f c2             	cmovg  %edx,%eax
   32121:	89 c2                	mov    %eax,%edx
   32123:	0f b6 9d 59 ff ff ff 	movzbl -0xa7(%ebp),%ebx
   3212a:	89 85 38 ff ff ff    	mov    %eax,-0xc8(%ebp)
   32130:	31 c0                	xor    %eax,%eax
   32132:	85 d2                	test   %edx,%edx
   32134:	0f 49 c2             	cmovns %edx,%eax
   32137:	89 85 48 ff ff ff    	mov    %eax,-0xb8(%ebp)
   3213d:	89 75 14             	mov    %esi,0x14(%ebp)
   32140:	c7 85 44 ff ff ff 00 	movl   $0x0,-0xbc(%ebp)
   32147:	00 00 00 
   3214a:	c7 85 20 ff ff ff 00 	movl   $0x0,-0xe0(%ebp)
   32151:	00 00 00 
   32154:	8d 74 26 00          	lea    0x0(%esi,%eiz,1),%esi
   32158:	84 db                	test   %bl,%bl
   3215a:	74 07                	je     32163 <_svfprintf_r+0x2a3>
   3215c:	83 85 48 ff ff ff 01 	addl   $0x1,-0xb8(%ebp)
   32163:	8b 8d 48 ff ff ff    	mov    -0xb8(%ebp),%ecx
   32169:	8b b5 4c ff ff ff    	mov    -0xb4(%ebp),%esi
   3216f:	89 c8                	mov    %ecx,%eax
   32171:	89 f2                	mov    %esi,%edx
   32173:	83 c0 02             	add    $0x2,%eax
   32176:	83 e2 02             	and    $0x2,%edx
   32179:	89 95 30 ff ff ff    	mov    %edx,-0xd0(%ebp)
   3217f:	89 f2                	mov    %esi,%edx
   32181:	0f 44 c1             	cmove  %ecx,%eax
   32184:	81 e2 84 00 00 00    	and    $0x84,%edx
   3218a:	89 85 48 ff ff ff    	mov    %eax,-0xb8(%ebp)
   32190:	89 95 2c ff ff ff    	mov    %edx,-0xd4(%ebp)
   32196:	0f 85 1c 06 00 00    	jne    327b8 <_svfprintf_r+0x8f8>
   3219c:	8b b5 40 ff ff ff    	mov    -0xc0(%ebp),%esi
   321a2:	2b b5 48 ff ff ff    	sub    -0xb8(%ebp),%esi
   321a8:	85 f6                	test   %esi,%esi
   321aa:	0f 8e 08 06 00 00    	jle    327b8 <_svfprintf_r+0x8f8>
   321b0:	83 fe 10             	cmp    $0x10,%esi
   321b3:	8b 8d 7c ff ff ff    	mov    -0x84(%ebp),%ecx
   321b9:	8b 85 78 ff ff ff    	mov    -0x88(%ebp),%eax
   321bf:	8d 9d 74 ff ff ff    	lea    -0x8c(%ebp),%ebx
   321c5:	7f 11                	jg     321d8 <_svfprintf_r+0x318>
   321c7:	eb 6b                	jmp    32234 <_svfprintf_r+0x374>
   321c9:	8d b4 26 00 00 00 00 	lea    0x0(%esi,%eiz,1),%esi
   321d0:	83 ee 10             	sub    $0x10,%esi
   321d3:	83 fe 10             	cmp    $0x10,%esi
   321d6:	7e 5c                	jle    32234 <_svfprintf_r+0x374>
   321d8:	83 c0 01             	add    $0x1,%eax
   321db:	83 c1 10             	add    $0x10,%ecx
   321de:	c7 07 78 9a 03 00    	movl   $0x39a78,(%edi)
   321e4:	83 c7 08             	add    $0x8,%edi
   321e7:	c7 47 fc 10 00 00 00 	movl   $0x10,-0x4(%edi)
   321ee:	83 f8 07             	cmp    $0x7,%eax
   321f1:	89 8d 7c ff ff ff    	mov    %ecx,-0x84(%ebp)
   321f7:	89 85 78 ff ff ff    	mov    %eax,-0x88(%ebp)
   321fd:	7e d1                	jle    321d0 <_svfprintf_r+0x310>
   321ff:	8b 45 0c             	mov    0xc(%ebp),%eax
   32202:	89 5c 24 08          	mov    %ebx,0x8(%esp)
   32206:	89 44 24 04          	mov    %eax,0x4(%esp)
   3220a:	8b 45 08             	mov    0x8(%ebp),%eax
   3220d:	89 04 24             	mov    %eax,(%esp)
   32210:	e8 2b 48 00 00       	call   36a40 <__ssprint_r>
   32215:	85 c0                	test   %eax,%eax
   32217:	0f 85 73 fe ff ff    	jne    32090 <_svfprintf_r+0x1d0>
   3221d:	83 ee 10             	sub    $0x10,%esi
   32220:	8b 8d 7c ff ff ff    	mov    -0x84(%ebp),%ecx
   32226:	83 fe 10             	cmp    $0x10,%esi
   32229:	8b 85 78 ff ff ff    	mov    -0x88(%ebp),%eax
   3222f:	8d 7d a8             	lea    -0x58(%ebp),%edi
   32232:	7f a4                	jg     321d8 <_svfprintf_r+0x318>
   32234:	83 c0 01             	add    $0x1,%eax
   32237:	01 f1                	add    %esi,%ecx
   32239:	83 f8 07             	cmp    $0x7,%eax
   3223c:	c7 07 78 9a 03 00    	movl   $0x39a78,(%edi)
   32242:	89 77 04             	mov    %esi,0x4(%edi)
   32245:	89 8d 7c ff ff ff    	mov    %ecx,-0x84(%ebp)
   3224b:	89 85 78 ff ff ff    	mov    %eax,-0x88(%ebp)
   32251:	0f 8f 16 0e 00 00    	jg     3306d <_svfprintf_r+0x11ad>
   32257:	83 c7 08             	add    $0x8,%edi
   3225a:	0f b6 9d 59 ff ff ff 	movzbl -0xa7(%ebp),%ebx
   32261:	e9 58 05 00 00       	jmp    327be <_svfprintf_r+0x8fe>
   32266:	f6 85 4c ff ff ff 10 	testb  $0x10,-0xb4(%ebp)
   3226d:	89 85 24 ff ff ff    	mov    %eax,-0xdc(%ebp)
   32273:	8b 45 14             	mov    0x14(%ebp),%eax
   32276:	89 4d 10             	mov    %ecx,0x10(%ebp)
   32279:	0f 85 fd 04 00 00    	jne    3277c <_svfprintf_r+0x8bc>
   3227f:	f6 85 4c ff ff ff 40 	testb  $0x40,-0xb4(%ebp)
   32286:	0f 84 f0 04 00 00    	je     3277c <_svfprintf_r+0x8bc>
   3228c:	0f b7 08             	movzwl (%eax),%ecx
   3228f:	83 c0 04             	add    $0x4,%eax
   32292:	89 45 14             	mov    %eax,0x14(%ebp)
   32295:	b8 01 00 00 00       	mov    $0x1,%eax
   3229a:	8d b6 00 00 00 00    	lea    0x0(%esi),%esi
   322a0:	c6 85 59 ff ff ff 00 	movb   $0x0,-0xa7(%ebp)
   322a7:	31 db                	xor    %ebx,%ebx
   322a9:	8b b5 4c ff ff ff    	mov    -0xb4(%ebp),%esi
   322af:	89 f2                	mov    %esi,%edx
   322b1:	80 e2 7f             	and    $0x7f,%dl
   322b4:	83 bd 44 ff ff ff 00 	cmpl   $0x0,-0xbc(%ebp)
   322bb:	0f 48 d6             	cmovs  %esi,%edx
   322be:	89 95 4c ff ff ff    	mov    %edx,-0xb4(%ebp)
   322c4:	8b 95 44 ff ff ff    	mov    -0xbc(%ebp),%edx
   322ca:	85 d2                	test   %edx,%edx
   322cc:	75 08                	jne    322d6 <_svfprintf_r+0x416>
   322ce:	85 c9                	test   %ecx,%ecx
   322d0:	0f 84 ea 08 00 00    	je     32bc0 <_svfprintf_r+0xd00>
   322d6:	3c 01                	cmp    $0x1,%al
   322d8:	0f 84 6a 0d 00 00    	je     33048 <_svfprintf_r+0x1188>
   322de:	3c 02                	cmp    $0x2,%al
   322e0:	8d 45 a8             	lea    -0x58(%ebp),%eax
   322e3:	0f 85 bf 0b 00 00    	jne    32ea8 <_svfprintf_r+0xfe8>
   322e9:	8b b5 18 ff ff ff    	mov    -0xe8(%ebp),%esi
   322ef:	90                   	nop
   322f0:	89 ca                	mov    %ecx,%edx
   322f2:	83 e8 01             	sub    $0x1,%eax
   322f5:	83 e2 0f             	and    $0xf,%edx
   322f8:	0f b6 14 16          	movzbl (%esi,%edx,1),%edx
   322fc:	c1 e9 04             	shr    $0x4,%ecx
   322ff:	85 c9                	test   %ecx,%ecx
   32301:	88 10                	mov    %dl,(%eax)
   32303:	75 eb                	jne    322f0 <_svfprintf_r+0x430>
   32305:	8d 55 a8             	lea    -0x58(%ebp),%edx
   32308:	29 c2                	sub    %eax,%edx
   3230a:	89 85 28 ff ff ff    	mov    %eax,-0xd8(%ebp)
   32310:	89 95 38 ff ff ff    	mov    %edx,-0xc8(%ebp)
   32316:	66 90                	xchg   %ax,%ax
   32318:	8b 85 44 ff ff ff    	mov    -0xbc(%ebp),%eax
   3231e:	8b 95 38 ff ff ff    	mov    -0xc8(%ebp),%edx
   32324:	c7 85 20 ff ff ff 00 	movl   $0x0,-0xe0(%ebp)
   3232b:	00 00 00 
   3232e:	39 c2                	cmp    %eax,%edx
   32330:	0f 4d c2             	cmovge %edx,%eax
   32333:	89 85 48 ff ff ff    	mov    %eax,-0xb8(%ebp)
   32339:	e9 1a fe ff ff       	jmp    32158 <_svfprintf_r+0x298>
   3233e:	84 db                	test   %bl,%bl
   32340:	89 c8                	mov    %ecx,%eax
   32342:	0f 44 de             	cmove  %esi,%ebx
   32345:	e9 a3 fc ff ff       	jmp    31fed <_svfprintf_r+0x12d>
   3234a:	83 8d 4c ff ff ff 01 	orl    $0x1,-0xb4(%ebp)
   32351:	89 c8                	mov    %ecx,%eax
   32353:	e9 95 fc ff ff       	jmp    31fed <_svfprintf_r+0x12d>
   32358:	81 8d 4c ff ff ff 80 	orl    $0x80,-0xb4(%ebp)
   3235f:	00 00 00 
   32362:	89 c8                	mov    %ecx,%eax
   32364:	e9 84 fc ff ff       	jmp    31fed <_svfprintf_r+0x12d>
   32369:	89 bd 48 ff ff ff    	mov    %edi,-0xb8(%ebp)
   3236f:	8d 50 d0             	lea    -0x30(%eax),%edx
   32372:	31 ff                	xor    %edi,%edi
   32374:	c7 85 40 ff ff ff 00 	movl   $0x0,-0xc0(%ebp)
   3237b:	00 00 00 
   3237e:	66 90                	xchg   %ax,%ax
   32380:	8d 04 bf             	lea    (%edi,%edi,4),%eax
   32383:	83 c1 01             	add    $0x1,%ecx
   32386:	8d 3c 42             	lea    (%edx,%eax,2),%edi
   32389:	0f be 41 ff          	movsbl -0x1(%ecx),%eax
   3238d:	8d 50 d0             	lea    -0x30(%eax),%edx
   32390:	83 fa 09             	cmp    $0x9,%edx
   32393:	76 eb                	jbe    32380 <_svfprintf_r+0x4c0>
   32395:	89 bd 40 ff ff ff    	mov    %edi,-0xc0(%ebp)
   3239b:	8b bd 48 ff ff ff    	mov    -0xb8(%ebp),%edi
   323a1:	e9 4d fc ff ff       	jmp    31ff3 <_svfprintf_r+0x133>
   323a6:	83 8d 4c ff ff ff 10 	orl    $0x10,-0xb4(%ebp)
   323ad:	f6 85 4c ff ff ff 10 	testb  $0x10,-0xb4(%ebp)
   323b4:	89 85 24 ff ff ff    	mov    %eax,-0xdc(%ebp)
   323ba:	8b 45 14             	mov    0x14(%ebp),%eax
   323bd:	89 4d 10             	mov    %ecx,0x10(%ebp)
   323c0:	88 9d 59 ff ff ff    	mov    %bl,-0xa7(%ebp)
   323c6:	0f 85 61 02 00 00    	jne    3262d <_svfprintf_r+0x76d>
   323cc:	f6 85 4c ff ff ff 40 	testb  $0x40,-0xb4(%ebp)
   323d3:	0f 84 54 02 00 00    	je     3262d <_svfprintf_r+0x76d>
   323d9:	0f bf 08             	movswl (%eax),%ecx
   323dc:	83 c0 04             	add    $0x4,%eax
   323df:	89 45 14             	mov    %eax,0x14(%ebp)
   323e2:	85 c9                	test   %ecx,%ecx
   323e4:	0f 88 53 02 00 00    	js     3263d <_svfprintf_r+0x77d>
   323ea:	0f b6 9d 59 ff ff ff 	movzbl -0xa7(%ebp),%ebx
   323f1:	b8 01 00 00 00       	mov    $0x1,%eax
   323f6:	e9 ae fe ff ff       	jmp    322a9 <_svfprintf_r+0x3e9>
   323fb:	f6 85 4c ff ff ff 08 	testb  $0x8,-0xb4(%ebp)
   32402:	89 85 24 ff ff ff    	mov    %eax,-0xdc(%ebp)
   32408:	8b 45 14             	mov    0x14(%ebp),%eax
   3240b:	89 4d 10             	mov    %ecx,0x10(%ebp)
   3240e:	88 9d 59 ff ff ff    	mov    %bl,-0xa7(%ebp)
   32414:	0f 84 15 10 00 00    	je     3342f <_svfprintf_r+0x156f>
   3241a:	db 28                	fldt   (%eax)
   3241c:	83 c0 0c             	add    $0xc,%eax
   3241f:	89 45 14             	mov    %eax,0x14(%ebp)
   32422:	dd 9d 10 ff ff ff    	fstpl  -0xf0(%ebp)
   32428:	dd 85 10 ff ff ff    	fldl   -0xf0(%ebp)
   3242e:	dd 1c 24             	fstpl  (%esp)
   32431:	e8 aa 44 00 00       	call   368e0 <__fpclassifyd>
   32436:	83 f8 01             	cmp    $0x1,%eax
   32439:	0f 85 82 0f 00 00    	jne    333c1 <_svfprintf_r+0x1501>
   3243f:	d9 ee                	fldz   
   32441:	dd 85 10 ff ff ff    	fldl   -0xf0(%ebp)
   32447:	d9 c9                	fxch   %st(1)
   32449:	df e9                	fucomip %st(1),%st
   3244b:	dd d8                	fstp   %st(0)
   3244d:	0f 87 59 15 00 00    	ja     339ac <_svfprintf_r+0x1aec>
   32453:	0f b6 9d 59 ff ff ff 	movzbl -0xa7(%ebp),%ebx
   3245a:	83 bd 24 ff ff ff 47 	cmpl   $0x47,-0xdc(%ebp)
   32461:	ba c6 98 03 00       	mov    $0x398c6,%edx
   32466:	b8 ca 98 03 00       	mov    $0x398ca,%eax
   3246b:	c7 85 48 ff ff ff 03 	movl   $0x3,-0xb8(%ebp)
   32472:	00 00 00 
   32475:	0f 4e c2             	cmovle %edx,%eax
   32478:	89 85 28 ff ff ff    	mov    %eax,-0xd8(%ebp)
   3247e:	81 a5 4c ff ff ff 7f 	andl   $0xffffff7f,-0xb4(%ebp)
   32485:	ff ff ff 
   32488:	c7 85 38 ff ff ff 03 	movl   $0x3,-0xc8(%ebp)
   3248f:	00 00 00 
   32492:	c7 85 44 ff ff ff 00 	movl   $0x0,-0xbc(%ebp)
   32499:	00 00 00 
   3249c:	c7 85 20 ff ff ff 00 	movl   $0x0,-0xe0(%ebp)
   324a3:	00 00 00 
   324a6:	e9 ad fc ff ff       	jmp    32158 <_svfprintf_r+0x298>
   324ab:	8d 41 01             	lea    0x1(%ecx),%eax
   324ae:	89 85 48 ff ff ff    	mov    %eax,-0xb8(%ebp)
   324b4:	0f be 01             	movsbl (%ecx),%eax
   324b7:	83 f8 2a             	cmp    $0x2a,%eax
   324ba:	0f 84 84 18 00 00    	je     33d44 <_svfprintf_r+0x1e84>
   324c0:	8d 50 d0             	lea    -0x30(%eax),%edx
   324c3:	31 c9                	xor    %ecx,%ecx
   324c5:	83 fa 09             	cmp    $0x9,%edx
   324c8:	0f 87 a8 16 00 00    	ja     33b76 <_svfprintf_r+0x1cb6>
   324ce:	89 bd 44 ff ff ff    	mov    %edi,-0xbc(%ebp)
   324d4:	8b bd 48 ff ff ff    	mov    -0xb8(%ebp),%edi
   324da:	8d b6 00 00 00 00    	lea    0x0(%esi),%esi
   324e0:	8d 04 89             	lea    (%ecx,%ecx,4),%eax
   324e3:	83 c7 01             	add    $0x1,%edi
   324e6:	8d 0c 42             	lea    (%edx,%eax,2),%ecx
   324e9:	0f be 47 ff          	movsbl -0x1(%edi),%eax
   324ed:	8d 50 d0             	lea    -0x30(%eax),%edx
   324f0:	83 fa 09             	cmp    $0x9,%edx
   324f3:	76 eb                	jbe    324e0 <_svfprintf_r+0x620>
   324f5:	85 c9                	test   %ecx,%ecx
   324f7:	89 ca                	mov    %ecx,%edx
   324f9:	b9 ff ff ff ff       	mov    $0xffffffff,%ecx
   324fe:	0f 48 d1             	cmovs  %ecx,%edx
   32501:	89 bd 48 ff ff ff    	mov    %edi,-0xb8(%ebp)
   32507:	8b bd 44 ff ff ff    	mov    -0xbc(%ebp),%edi
   3250d:	8b 8d 48 ff ff ff    	mov    -0xb8(%ebp),%ecx
   32513:	89 95 44 ff ff ff    	mov    %edx,-0xbc(%ebp)
   32519:	e9 d5 fa ff ff       	jmp    31ff3 <_svfprintf_r+0x133>
   3251e:	8b 45 14             	mov    0x14(%ebp),%eax
   32521:	89 4d 10             	mov    %ecx,0x10(%ebp)
   32524:	83 8d 4c ff ff ff 02 	orl    $0x2,-0xb4(%ebp)
   3252b:	8b 08                	mov    (%eax),%ecx
   3252d:	83 c0 04             	add    $0x4,%eax
   32530:	89 45 14             	mov    %eax,0x14(%ebp)
   32533:	b8 02 00 00 00       	mov    $0x2,%eax
   32538:	c6 85 5a ff ff ff 30 	movb   $0x30,-0xa6(%ebp)
   3253f:	c6 85 5b ff ff ff 78 	movb   $0x78,-0xa5(%ebp)
   32546:	c7 85 18 ff ff ff e7 	movl   $0x398e7,-0xe8(%ebp)
   3254d:	98 03 00 
   32550:	c7 85 24 ff ff ff 78 	movl   $0x78,-0xdc(%ebp)
   32557:	00 00 00 
   3255a:	e9 41 fd ff ff       	jmp    322a0 <_svfprintf_r+0x3e0>
   3255f:	f6 85 4c ff ff ff 10 	testb  $0x10,-0xb4(%ebp)
   32566:	89 85 24 ff ff ff    	mov    %eax,-0xdc(%ebp)
   3256c:	8b 45 14             	mov    0x14(%ebp),%eax
   3256f:	89 4d 10             	mov    %ecx,0x10(%ebp)
   32572:	0f 85 87 00 00 00    	jne    325ff <_svfprintf_r+0x73f>
   32578:	f6 85 4c ff ff ff 40 	testb  $0x40,-0xb4(%ebp)
   3257f:	74 7e                	je     325ff <_svfprintf_r+0x73f>
   32581:	0f b7 08             	movzwl (%eax),%ecx
   32584:	83 c0 04             	add    $0x4,%eax
   32587:	89 45 14             	mov    %eax,0x14(%ebp)
   3258a:	31 c0                	xor    %eax,%eax
   3258c:	e9 0f fd ff ff       	jmp    322a0 <_svfprintf_r+0x3e0>
   32591:	83 8d 4c ff ff ff 08 	orl    $0x8,-0xb4(%ebp)
   32598:	89 c8                	mov    %ecx,%eax
   3259a:	e9 4e fa ff ff       	jmp    31fed <_svfprintf_r+0x12d>
   3259f:	f6 85 4c ff ff ff 10 	testb  $0x10,-0xb4(%ebp)
   325a6:	89 4d 10             	mov    %ecx,0x10(%ebp)
   325a9:	88 9d 59 ff ff ff    	mov    %bl,-0xa7(%ebp)
   325af:	0f 85 97 0b 00 00    	jne    3314c <_svfprintf_r+0x128c>
   325b5:	f6 85 4c ff ff ff 40 	testb  $0x40,-0xb4(%ebp)
   325bc:	0f 84 8a 0b 00 00    	je     3314c <_svfprintf_r+0x128c>
   325c2:	8b 45 14             	mov    0x14(%ebp),%eax
   325c5:	0f b7 95 34 ff ff ff 	movzwl -0xcc(%ebp),%edx
   325cc:	8b 00                	mov    (%eax),%eax
   325ce:	66 89 10             	mov    %dx,(%eax)
   325d1:	8b 45 14             	mov    0x14(%ebp),%eax
   325d4:	83 c0 04             	add    $0x4,%eax
   325d7:	89 45 14             	mov    %eax,0x14(%ebp)
   325da:	e9 7c f9 ff ff       	jmp    31f5b <_svfprintf_r+0x9b>
   325df:	83 8d 4c ff ff ff 10 	orl    $0x10,-0xb4(%ebp)
   325e6:	f6 85 4c ff ff ff 10 	testb  $0x10,-0xb4(%ebp)
   325ed:	89 85 24 ff ff ff    	mov    %eax,-0xdc(%ebp)
   325f3:	8b 45 14             	mov    0x14(%ebp),%eax
   325f6:	89 4d 10             	mov    %ecx,0x10(%ebp)
   325f9:	0f 84 79 ff ff ff    	je     32578 <_svfprintf_r+0x6b8>
   325ff:	8b 08                	mov    (%eax),%ecx
   32601:	83 c0 04             	add    $0x4,%eax
   32604:	89 45 14             	mov    %eax,0x14(%ebp)
   32607:	31 c0                	xor    %eax,%eax
   32609:	e9 92 fc ff ff       	jmp    322a0 <_svfprintf_r+0x3e0>
   3260e:	f6 85 4c ff ff ff 10 	testb  $0x10,-0xb4(%ebp)
   32615:	89 85 24 ff ff ff    	mov    %eax,-0xdc(%ebp)
   3261b:	8b 45 14             	mov    0x14(%ebp),%eax
   3261e:	89 4d 10             	mov    %ecx,0x10(%ebp)
   32621:	88 9d 59 ff ff ff    	mov    %bl,-0xa7(%ebp)
   32627:	0f 84 9f fd ff ff    	je     323cc <_svfprintf_r+0x50c>
   3262d:	8b 08                	mov    (%eax),%ecx
   3262f:	83 c0 04             	add    $0x4,%eax
   32632:	89 45 14             	mov    %eax,0x14(%ebp)
   32635:	85 c9                	test   %ecx,%ecx
   32637:	0f 89 ad fd ff ff    	jns    323ea <_svfprintf_r+0x52a>
   3263d:	f7 d9                	neg    %ecx
   3263f:	bb 2d 00 00 00       	mov    $0x2d,%ebx
   32644:	c6 85 59 ff ff ff 2d 	movb   $0x2d,-0xa7(%ebp)
   3264b:	b8 01 00 00 00       	mov    $0x1,%eax
   32650:	e9 54 fc ff ff       	jmp    322a9 <_svfprintf_r+0x3e9>
   32655:	83 8d 4c ff ff ff 40 	orl    $0x40,-0xb4(%ebp)
   3265c:	89 c8                	mov    %ecx,%eax
   3265e:	e9 8a f9 ff ff       	jmp    31fed <_svfprintf_r+0x12d>
   32663:	f6 85 4c ff ff ff 10 	testb  $0x10,-0xb4(%ebp)
   3266a:	89 85 24 ff ff ff    	mov    %eax,-0xdc(%ebp)
   32670:	8b 45 14             	mov    0x14(%ebp),%eax
   32673:	89 4d 10             	mov    %ecx,0x10(%ebp)
   32676:	88 9d 59 ff ff ff    	mov    %bl,-0xa7(%ebp)
   3267c:	c7 85 18 ff ff ff e7 	movl   $0x398e7,-0xe8(%ebp)
   32683:	98 03 00 
   32686:	75 71                	jne    326f9 <_svfprintf_r+0x839>
   32688:	f6 85 4c ff ff ff 40 	testb  $0x40,-0xb4(%ebp)
   3268f:	74 68                	je     326f9 <_svfprintf_r+0x839>
   32691:	0f b7 08             	movzwl (%eax),%ecx
   32694:	83 c0 04             	add    $0x4,%eax
   32697:	89 45 14             	mov    %eax,0x14(%ebp)
   3269a:	f6 85 4c ff ff ff 01 	testb  $0x1,-0xb4(%ebp)
   326a1:	b8 02 00 00 00       	mov    $0x2,%eax
   326a6:	0f 84 f4 fb ff ff    	je     322a0 <_svfprintf_r+0x3e0>
   326ac:	85 c9                	test   %ecx,%ecx
   326ae:	0f 84 ec fb ff ff    	je     322a0 <_svfprintf_r+0x3e0>
   326b4:	0f b6 95 24 ff ff ff 	movzbl -0xdc(%ebp),%edx
   326bb:	c6 85 5a ff ff ff 30 	movb   $0x30,-0xa6(%ebp)
   326c2:	83 8d 4c ff ff ff 02 	orl    $0x2,-0xb4(%ebp)
   326c9:	88 95 5b ff ff ff    	mov    %dl,-0xa5(%ebp)
   326cf:	e9 cc fb ff ff       	jmp    322a0 <_svfprintf_r+0x3e0>
   326d4:	f6 85 4c ff ff ff 10 	testb  $0x10,-0xb4(%ebp)
   326db:	89 85 24 ff ff ff    	mov    %eax,-0xdc(%ebp)
   326e1:	8b 45 14             	mov    0x14(%ebp),%eax
   326e4:	89 4d 10             	mov    %ecx,0x10(%ebp)
   326e7:	88 9d 59 ff ff ff    	mov    %bl,-0xa7(%ebp)
   326ed:	c7 85 18 ff ff ff d6 	movl   $0x398d6,-0xe8(%ebp)
   326f4:	98 03 00 
   326f7:	74 8f                	je     32688 <_svfprintf_r+0x7c8>
   326f9:	8b 08                	mov    (%eax),%ecx
   326fb:	83 c0 04             	add    $0x4,%eax
   326fe:	89 45 14             	mov    %eax,0x14(%ebp)
   32701:	eb 97                	jmp    3269a <_svfprintf_r+0x7da>
   32703:	89 85 24 ff ff ff    	mov    %eax,-0xdc(%ebp)
   32709:	8b 45 14             	mov    0x14(%ebp),%eax
   3270c:	89 4d 10             	mov    %ecx,0x10(%ebp)
   3270f:	c6 85 59 ff ff ff 00 	movb   $0x0,-0xa7(%ebp)
   32716:	8b 00                	mov    (%eax),%eax
   32718:	88 45 80             	mov    %al,-0x80(%ebp)
   3271b:	8b 45 14             	mov    0x14(%ebp),%eax
   3271e:	83 c0 04             	add    $0x4,%eax
   32721:	89 45 14             	mov    %eax,0x14(%ebp)
   32724:	8d 45 80             	lea    -0x80(%ebp),%eax
   32727:	31 db                	xor    %ebx,%ebx
   32729:	c7 85 48 ff ff ff 01 	movl   $0x1,-0xb8(%ebp)
   32730:	00 00 00 
   32733:	c7 85 38 ff ff ff 01 	movl   $0x1,-0xc8(%ebp)
   3273a:	00 00 00 
   3273d:	c7 85 44 ff ff ff 00 	movl   $0x0,-0xbc(%ebp)
   32744:	00 00 00 
   32747:	c7 85 20 ff ff ff 00 	movl   $0x0,-0xe0(%ebp)
   3274e:	00 00 00 
   32751:	89 85 28 ff ff ff    	mov    %eax,-0xd8(%ebp)
   32757:	e9 07 fa ff ff       	jmp    32163 <_svfprintf_r+0x2a3>
   3275c:	83 8d 4c ff ff ff 10 	orl    $0x10,-0xb4(%ebp)
   32763:	f6 85 4c ff ff ff 10 	testb  $0x10,-0xb4(%ebp)
   3276a:	89 85 24 ff ff ff    	mov    %eax,-0xdc(%ebp)
   32770:	8b 45 14             	mov    0x14(%ebp),%eax
   32773:	89 4d 10             	mov    %ecx,0x10(%ebp)
   32776:	0f 84 03 fb ff ff    	je     3227f <_svfprintf_r+0x3bf>
   3277c:	8b 08                	mov    (%eax),%ecx
   3277e:	83 c0 04             	add    $0x4,%eax
   32781:	89 45 14             	mov    %eax,0x14(%ebp)
   32784:	b8 01 00 00 00       	mov    $0x1,%eax
   32789:	e9 12 fb ff ff       	jmp    322a0 <_svfprintf_r+0x3e0>
   3278e:	85 c0                	test   %eax,%eax
   32790:	89 85 24 ff ff ff    	mov    %eax,-0xdc(%ebp)
   32796:	89 4d 10             	mov    %ecx,0x10(%ebp)
   32799:	88 9d 59 ff ff ff    	mov    %bl,-0xa7(%ebp)
   3279f:	0f 84 c3 f8 ff ff    	je     32068 <_svfprintf_r+0x1a8>
   327a5:	88 45 80             	mov    %al,-0x80(%ebp)
   327a8:	c6 85 59 ff ff ff 00 	movb   $0x0,-0xa7(%ebp)
   327af:	e9 70 ff ff ff       	jmp    32724 <_svfprintf_r+0x864>
   327b4:	8d 74 26 00          	lea    0x0(%esi,%eiz,1),%esi
   327b8:	8b 8d 7c ff ff ff    	mov    -0x84(%ebp),%ecx
   327be:	84 db                	test   %bl,%bl
   327c0:	74 33                	je     327f5 <_svfprintf_r+0x935>
   327c2:	8d 85 59 ff ff ff    	lea    -0xa7(%ebp),%eax
   327c8:	83 c1 01             	add    $0x1,%ecx
   327cb:	89 07                	mov    %eax,(%edi)
   327cd:	8b 85 78 ff ff ff    	mov    -0x88(%ebp),%eax
   327d3:	83 c7 08             	add    $0x8,%edi
   327d6:	c7 47 fc 01 00 00 00 	movl   $0x1,-0x4(%edi)
   327dd:	89 8d 7c ff ff ff    	mov    %ecx,-0x84(%ebp)
   327e3:	83 c0 01             	add    $0x1,%eax
   327e6:	83 f8 07             	cmp    $0x7,%eax
   327e9:	89 85 78 ff ff ff    	mov    %eax,-0x88(%ebp)
   327ef:	0f 8f 7b 06 00 00    	jg     32e70 <_svfprintf_r+0xfb0>
   327f5:	8b 9d 30 ff ff ff    	mov    -0xd0(%ebp),%ebx
   327fb:	85 db                	test   %ebx,%ebx
   327fd:	74 33                	je     32832 <_svfprintf_r+0x972>
   327ff:	8d 85 5a ff ff ff    	lea    -0xa6(%ebp),%eax
   32805:	83 c1 02             	add    $0x2,%ecx
   32808:	89 07                	mov    %eax,(%edi)
   3280a:	8b 85 78 ff ff ff    	mov    -0x88(%ebp),%eax
   32810:	83 c7 08             	add    $0x8,%edi
   32813:	c7 47 fc 02 00 00 00 	movl   $0x2,-0x4(%edi)
   3281a:	89 8d 7c ff ff ff    	mov    %ecx,-0x84(%ebp)
   32820:	83 c0 01             	add    $0x1,%eax
   32823:	83 f8 07             	cmp    $0x7,%eax
   32826:	89 85 78 ff ff ff    	mov    %eax,-0x88(%ebp)
   3282c:	0f 8f 06 06 00 00    	jg     32e38 <_svfprintf_r+0xf78>
   32832:	81 bd 2c ff ff ff 80 	cmpl   $0x80,-0xd4(%ebp)
   32839:	00 00 00 
   3283c:	0f 84 c6 03 00 00    	je     32c08 <_svfprintf_r+0xd48>
   32842:	8b b5 44 ff ff ff    	mov    -0xbc(%ebp),%esi
   32848:	2b b5 38 ff ff ff    	sub    -0xc8(%ebp),%esi
   3284e:	85 f6                	test   %esi,%esi
   32850:	0f 8e d2 00 00 00    	jle    32928 <_svfprintf_r+0xa68>
   32856:	83 fe 10             	cmp    $0x10,%esi
   32859:	8b 85 78 ff ff ff    	mov    -0x88(%ebp),%eax
   3285f:	8d 9d 74 ff ff ff    	lea    -0x8c(%ebp),%ebx
   32865:	7f 11                	jg     32878 <_svfprintf_r+0x9b8>
   32867:	eb 6b                	jmp    328d4 <_svfprintf_r+0xa14>
   32869:	8d b4 26 00 00 00 00 	lea    0x0(%esi,%eiz,1),%esi
   32870:	83 ee 10             	sub    $0x10,%esi
   32873:	83 fe 10             	cmp    $0x10,%esi
   32876:	7e 5c                	jle    328d4 <_svfprintf_r+0xa14>
   32878:	83 c0 01             	add    $0x1,%eax
   3287b:	83 c1 10             	add    $0x10,%ecx
   3287e:	c7 07 68 9a 03 00    	movl   $0x39a68,(%edi)
   32884:	83 c7 08             	add    $0x8,%edi
   32887:	c7 47 fc 10 00 00 00 	movl   $0x10,-0x4(%edi)
   3288e:	83 f8 07             	cmp    $0x7,%eax
   32891:	89 8d 7c ff ff ff    	mov    %ecx,-0x84(%ebp)
   32897:	89 85 78 ff ff ff    	mov    %eax,-0x88(%ebp)
   3289d:	7e d1                	jle    32870 <_svfprintf_r+0x9b0>
   3289f:	8b 45 0c             	mov    0xc(%ebp),%eax
   328a2:	89 5c 24 08          	mov    %ebx,0x8(%esp)
   328a6:	89 44 24 04          	mov    %eax,0x4(%esp)
   328aa:	8b 45 08             	mov    0x8(%ebp),%eax
   328ad:	89 04 24             	mov    %eax,(%esp)
   328b0:	e8 8b 41 00 00       	call   36a40 <__ssprint_r>
   328b5:	85 c0                	test   %eax,%eax
   328b7:	0f 85 d3 f7 ff ff    	jne    32090 <_svfprintf_r+0x1d0>
   328bd:	83 ee 10             	sub    $0x10,%esi
   328c0:	8b 8d 7c ff ff ff    	mov    -0x84(%ebp),%ecx
   328c6:	83 fe 10             	cmp    $0x10,%esi
   328c9:	8b 85 78 ff ff ff    	mov    -0x88(%ebp),%eax
   328cf:	8d 7d a8             	lea    -0x58(%ebp),%edi
   328d2:	7f a4                	jg     32878 <_svfprintf_r+0x9b8>
   328d4:	83 c0 01             	add    $0x1,%eax
   328d7:	01 f1                	add    %esi,%ecx
   328d9:	c7 07 68 9a 03 00    	movl   $0x39a68,(%edi)
   328df:	83 c7 08             	add    $0x8,%edi
   328e2:	89 77 fc             	mov    %esi,-0x4(%edi)
   328e5:	83 f8 07             	cmp    $0x7,%eax
   328e8:	89 8d 7c ff ff ff    	mov    %ecx,-0x84(%ebp)
   328ee:	89 85 78 ff ff ff    	mov    %eax,-0x88(%ebp)
   328f4:	7e 32                	jle    32928 <_svfprintf_r+0xa68>
   328f6:	8d 85 74 ff ff ff    	lea    -0x8c(%ebp),%eax
   328fc:	89 44 24 08          	mov    %eax,0x8(%esp)
   32900:	8b 45 0c             	mov    0xc(%ebp),%eax
   32903:	89 44 24 04          	mov    %eax,0x4(%esp)
   32907:	8b 45 08             	mov    0x8(%ebp),%eax
   3290a:	89 04 24             	mov    %eax,(%esp)
   3290d:	e8 2e 41 00 00       	call   36a40 <__ssprint_r>
   32912:	85 c0                	test   %eax,%eax
   32914:	0f 85 76 f7 ff ff    	jne    32090 <_svfprintf_r+0x1d0>
   3291a:	8b 8d 7c ff ff ff    	mov    -0x84(%ebp),%ecx
   32920:	8d 7d a8             	lea    -0x58(%ebp),%edi
   32923:	90                   	nop
   32924:	8d 74 26 00          	lea    0x0(%esi,%eiz,1),%esi
   32928:	f7 85 4c ff ff ff 00 	testl  $0x100,-0xb4(%ebp)
   3292f:	01 00 00 
   32932:	0f 85 50 01 00 00    	jne    32a88 <_svfprintf_r+0xbc8>
   32938:	8b 85 28 ff ff ff    	mov    -0xd8(%ebp),%eax
   3293e:	89 07                	mov    %eax,(%edi)
   32940:	8b 85 38 ff ff ff    	mov    -0xc8(%ebp),%eax
   32946:	01 c1                	add    %eax,%ecx
   32948:	89 47 04             	mov    %eax,0x4(%edi)
   3294b:	8b 85 78 ff ff ff    	mov    -0x88(%ebp),%eax
   32951:	89 8d 7c ff ff ff    	mov    %ecx,-0x84(%ebp)
   32957:	83 c0 01             	add    $0x1,%eax
   3295a:	83 f8 07             	cmp    $0x7,%eax
   3295d:	89 85 78 ff ff ff    	mov    %eax,-0x88(%ebp)
   32963:	0f 8f 6a 04 00 00    	jg     32dd3 <_svfprintf_r+0xf13>
   32969:	83 c7 08             	add    $0x8,%edi
   3296c:	f6 85 4c ff ff ff 04 	testb  $0x4,-0xb4(%ebp)
   32973:	0f 84 d7 00 00 00    	je     32a50 <_svfprintf_r+0xb90>
   32979:	8b b5 40 ff ff ff    	mov    -0xc0(%ebp),%esi
   3297f:	2b b5 48 ff ff ff    	sub    -0xb8(%ebp),%esi
   32985:	85 f6                	test   %esi,%esi
   32987:	0f 8e c3 00 00 00    	jle    32a50 <_svfprintf_r+0xb90>
   3298d:	83 fe 10             	cmp    $0x10,%esi
   32990:	8b 85 78 ff ff ff    	mov    -0x88(%ebp),%eax
   32996:	8d 9d 74 ff ff ff    	lea    -0x8c(%ebp),%ebx
   3299c:	7f 0a                	jg     329a8 <_svfprintf_r+0xae8>
   3299e:	eb 64                	jmp    32a04 <_svfprintf_r+0xb44>
   329a0:	83 ee 10             	sub    $0x10,%esi
   329a3:	83 fe 10             	cmp    $0x10,%esi
   329a6:	7e 5c                	jle    32a04 <_svfprintf_r+0xb44>
   329a8:	83 c0 01             	add    $0x1,%eax
   329ab:	83 c1 10             	add    $0x10,%ecx
   329ae:	c7 07 78 9a 03 00    	movl   $0x39a78,(%edi)
   329b4:	83 c7 08             	add    $0x8,%edi
   329b7:	c7 47 fc 10 00 00 00 	movl   $0x10,-0x4(%edi)
   329be:	83 f8 07             	cmp    $0x7,%eax
   329c1:	89 8d 7c ff ff ff    	mov    %ecx,-0x84(%ebp)
   329c7:	89 85 78 ff ff ff    	mov    %eax,-0x88(%ebp)
   329cd:	7e d1                	jle    329a0 <_svfprintf_r+0xae0>
   329cf:	8b 45 0c             	mov    0xc(%ebp),%eax
   329d2:	89 5c 24 08          	mov    %ebx,0x8(%esp)
   329d6:	89 44 24 04          	mov    %eax,0x4(%esp)
   329da:	8b 45 08             	mov    0x8(%ebp),%eax
   329dd:	89 04 24             	mov    %eax,(%esp)
   329e0:	e8 5b 40 00 00       	call   36a40 <__ssprint_r>
   329e5:	85 c0                	test   %eax,%eax
   329e7:	0f 85 a3 f6 ff ff    	jne    32090 <_svfprintf_r+0x1d0>
   329ed:	83 ee 10             	sub    $0x10,%esi
   329f0:	8b 8d 7c ff ff ff    	mov    -0x84(%ebp),%ecx
   329f6:	83 fe 10             	cmp    $0x10,%esi
   329f9:	8b 85 78 ff ff ff    	mov    -0x88(%ebp),%eax
   329ff:	8d 7d a8             	lea    -0x58(%ebp),%edi
   32a02:	7f a4                	jg     329a8 <_svfprintf_r+0xae8>
   32a04:	83 c0 01             	add    $0x1,%eax
   32a07:	01 f1                	add    %esi,%ecx
   32a09:	83 f8 07             	cmp    $0x7,%eax
   32a0c:	c7 07 78 9a 03 00    	movl   $0x39a78,(%edi)
   32a12:	89 77 04             	mov    %esi,0x4(%edi)
   32a15:	89 8d 7c ff ff ff    	mov    %ecx,-0x84(%ebp)
   32a1b:	89 85 78 ff ff ff    	mov    %eax,-0x88(%ebp)
   32a21:	7e 2d                	jle    32a50 <_svfprintf_r+0xb90>
   32a23:	8d 85 74 ff ff ff    	lea    -0x8c(%ebp),%eax
   32a29:	89 44 24 08          	mov    %eax,0x8(%esp)
   32a2d:	8b 45 0c             	mov    0xc(%ebp),%eax
   32a30:	89 44 24 04          	mov    %eax,0x4(%esp)
   32a34:	8b 45 08             	mov    0x8(%ebp),%eax
   32a37:	89 04 24             	mov    %eax,(%esp)
   32a3a:	e8 01 40 00 00       	call   36a40 <__ssprint_r>
   32a3f:	85 c0                	test   %eax,%eax
   32a41:	0f 85 49 f6 ff ff    	jne    32090 <_svfprintf_r+0x1d0>
   32a47:	8b 8d 7c ff ff ff    	mov    -0x84(%ebp),%ecx
   32a4d:	8d 76 00             	lea    0x0(%esi),%esi
   32a50:	8b 85 40 ff ff ff    	mov    -0xc0(%ebp),%eax
   32a56:	8b 95 48 ff ff ff    	mov    -0xb8(%ebp),%edx
   32a5c:	39 c2                	cmp    %eax,%edx
   32a5e:	0f 4d c2             	cmovge %edx,%eax
   32a61:	01 85 34 ff ff ff    	add    %eax,-0xcc(%ebp)
   32a67:	85 c9                	test   %ecx,%ecx
   32a69:	0f 85 99 03 00 00    	jne    32e08 <_svfprintf_r+0xf48>
   32a6f:	c7 85 78 ff ff ff 00 	movl   $0x0,-0x88(%ebp)
   32a76:	00 00 00 
   32a79:	8d 7d a8             	lea    -0x58(%ebp),%edi
   32a7c:	e9 da f4 ff ff       	jmp    31f5b <_svfprintf_r+0x9b>
   32a81:	8d b4 26 00 00 00 00 	lea    0x0(%esi,%eiz,1),%esi
   32a88:	83 bd 24 ff ff ff 65 	cmpl   $0x65,-0xdc(%ebp)
   32a8f:	0f 8e 5b 02 00 00    	jle    32cf0 <_svfprintf_r+0xe30>
   32a95:	d9 ee                	fldz   
   32a97:	dd 85 10 ff ff ff    	fldl   -0xf0(%ebp)
   32a9d:	df e9                	fucomip %st(1),%st
   32a9f:	dd d8                	fstp   %st(0)
   32aa1:	0f 8a 59 04 00 00    	jp     32f00 <_svfprintf_r+0x1040>
   32aa7:	0f 85 53 04 00 00    	jne    32f00 <_svfprintf_r+0x1040>
   32aad:	8b 85 78 ff ff ff    	mov    -0x88(%ebp),%eax
   32ab3:	83 c1 01             	add    $0x1,%ecx
   32ab6:	83 c7 08             	add    $0x8,%edi
   32ab9:	c7 47 f8 ff 98 03 00 	movl   $0x398ff,-0x8(%edi)
   32ac0:	c7 47 fc 01 00 00 00 	movl   $0x1,-0x4(%edi)
   32ac7:	89 8d 7c ff ff ff    	mov    %ecx,-0x84(%ebp)
   32acd:	83 c0 01             	add    $0x1,%eax
   32ad0:	83 f8 07             	cmp    $0x7,%eax
   32ad3:	89 85 78 ff ff ff    	mov    %eax,-0x88(%ebp)
   32ad9:	0f 8f 63 09 00 00    	jg     33442 <_svfprintf_r+0x1582>
   32adf:	8b 85 1c ff ff ff    	mov    -0xe4(%ebp),%eax
   32ae5:	39 85 5c ff ff ff    	cmp    %eax,-0xa4(%ebp)
   32aeb:	7c 0d                	jl     32afa <_svfprintf_r+0xc3a>
   32aed:	f6 85 4c ff ff ff 01 	testb  $0x1,-0xb4(%ebp)
   32af4:	0f 84 72 fe ff ff    	je     3296c <_svfprintf_r+0xaac>
   32afa:	8b 85 0c ff ff ff    	mov    -0xf4(%ebp),%eax
   32b00:	83 c7 08             	add    $0x8,%edi
   32b03:	89 47 f8             	mov    %eax,-0x8(%edi)
   32b06:	8b 85 08 ff ff ff    	mov    -0xf8(%ebp),%eax
   32b0c:	89 47 fc             	mov    %eax,-0x4(%edi)
   32b0f:	01 c1                	add    %eax,%ecx
   32b11:	8b 85 78 ff ff ff    	mov    -0x88(%ebp),%eax
   32b17:	89 8d 7c ff ff ff    	mov    %ecx,-0x84(%ebp)
   32b1d:	83 c0 01             	add    $0x1,%eax
   32b20:	83 f8 07             	cmp    $0x7,%eax
   32b23:	89 85 78 ff ff ff    	mov    %eax,-0x88(%ebp)
   32b29:	0f 8f dc 0b 00 00    	jg     3370b <_svfprintf_r+0x184b>
   32b2f:	8b 85 1c ff ff ff    	mov    -0xe4(%ebp),%eax
   32b35:	8d 70 ff             	lea    -0x1(%eax),%esi
   32b38:	85 f6                	test   %esi,%esi
   32b3a:	0f 8e 2c fe ff ff    	jle    3296c <_svfprintf_r+0xaac>
   32b40:	83 fe 10             	cmp    $0x10,%esi
   32b43:	8b 85 78 ff ff ff    	mov    -0x88(%ebp),%eax
   32b49:	8d 9d 74 ff ff ff    	lea    -0x8c(%ebp),%ebx
   32b4f:	7f 13                	jg     32b64 <_svfprintf_r+0xca4>
   32b51:	e9 e6 05 00 00       	jmp    3313c <_svfprintf_r+0x127c>
   32b56:	66 90                	xchg   %ax,%ax
   32b58:	83 ee 10             	sub    $0x10,%esi
   32b5b:	83 fe 10             	cmp    $0x10,%esi
   32b5e:	0f 8e d8 05 00 00    	jle    3313c <_svfprintf_r+0x127c>
   32b64:	83 c0 01             	add    $0x1,%eax
   32b67:	83 c1 10             	add    $0x10,%ecx
   32b6a:	c7 07 68 9a 03 00    	movl   $0x39a68,(%edi)
   32b70:	83 c7 08             	add    $0x8,%edi
   32b73:	c7 47 fc 10 00 00 00 	movl   $0x10,-0x4(%edi)
   32b7a:	83 f8 07             	cmp    $0x7,%eax
   32b7d:	89 8d 7c ff ff ff    	mov    %ecx,-0x84(%ebp)
   32b83:	89 85 78 ff ff ff    	mov    %eax,-0x88(%ebp)
   32b89:	7e cd                	jle    32b58 <_svfprintf_r+0xc98>
   32b8b:	8b 45 0c             	mov    0xc(%ebp),%eax
   32b8e:	89 5c 24 08          	mov    %ebx,0x8(%esp)
   32b92:	89 44 24 04          	mov    %eax,0x4(%esp)
   32b96:	8b 45 08             	mov    0x8(%ebp),%eax
   32b99:	89 04 24             	mov    %eax,(%esp)
   32b9c:	e8 9f 3e 00 00       	call   36a40 <__ssprint_r>
   32ba1:	85 c0                	test   %eax,%eax
   32ba3:	0f 85 e7 f4 ff ff    	jne    32090 <_svfprintf_r+0x1d0>
   32ba9:	8b 8d 7c ff ff ff    	mov    -0x84(%ebp),%ecx
   32baf:	8d 7d a8             	lea    -0x58(%ebp),%edi
   32bb2:	8b 85 78 ff ff ff    	mov    -0x88(%ebp),%eax
   32bb8:	eb 9e                	jmp    32b58 <_svfprintf_r+0xc98>
   32bba:	8d b6 00 00 00 00    	lea    0x0(%esi),%esi
   32bc0:	84 c0                	test   %al,%al
   32bc2:	75 2c                	jne    32bf0 <_svfprintf_r+0xd30>
   32bc4:	f6 85 4c ff ff ff 01 	testb  $0x1,-0xb4(%ebp)
   32bcb:	74 23                	je     32bf0 <_svfprintf_r+0xd30>
   32bcd:	8b 85 00 ff ff ff    	mov    -0x100(%ebp),%eax
   32bd3:	c6 45 a7 30          	movb   $0x30,-0x59(%ebp)
   32bd7:	89 85 38 ff ff ff    	mov    %eax,-0xc8(%ebp)
   32bdd:	8d 45 a7             	lea    -0x59(%ebp),%eax
   32be0:	89 85 28 ff ff ff    	mov    %eax,-0xd8(%ebp)
   32be6:	e9 2d f7 ff ff       	jmp    32318 <_svfprintf_r+0x458>
   32beb:	90                   	nop
   32bec:	8d 74 26 00          	lea    0x0(%esi,%eiz,1),%esi
   32bf0:	8d 45 a8             	lea    -0x58(%ebp),%eax
   32bf3:	c7 85 38 ff ff ff 00 	movl   $0x0,-0xc8(%ebp)
   32bfa:	00 00 00 
   32bfd:	89 85 28 ff ff ff    	mov    %eax,-0xd8(%ebp)
   32c03:	e9 10 f7 ff ff       	jmp    32318 <_svfprintf_r+0x458>
   32c08:	8b b5 40 ff ff ff    	mov    -0xc0(%ebp),%esi
   32c0e:	2b b5 48 ff ff ff    	sub    -0xb8(%ebp),%esi
   32c14:	85 f6                	test   %esi,%esi
   32c16:	0f 8e 26 fc ff ff    	jle    32842 <_svfprintf_r+0x982>
   32c1c:	83 fe 10             	cmp    $0x10,%esi
   32c1f:	8b 85 78 ff ff ff    	mov    -0x88(%ebp),%eax
   32c25:	8d 9d 74 ff ff ff    	lea    -0x8c(%ebp),%ebx
   32c2b:	7f 0b                	jg     32c38 <_svfprintf_r+0xd78>
   32c2d:	eb 65                	jmp    32c94 <_svfprintf_r+0xdd4>
   32c2f:	90                   	nop
   32c30:	83 ee 10             	sub    $0x10,%esi
   32c33:	83 fe 10             	cmp    $0x10,%esi
   32c36:	7e 5c                	jle    32c94 <_svfprintf_r+0xdd4>
   32c38:	83 c0 01             	add    $0x1,%eax
   32c3b:	83 c1 10             	add    $0x10,%ecx
   32c3e:	c7 07 68 9a 03 00    	movl   $0x39a68,(%edi)
   32c44:	83 c7 08             	add    $0x8,%edi
   32c47:	c7 47 fc 10 00 00 00 	movl   $0x10,-0x4(%edi)
   32c4e:	83 f8 07             	cmp    $0x7,%eax
   32c51:	89 8d 7c ff ff ff    	mov    %ecx,-0x84(%ebp)
   32c57:	89 85 78 ff ff ff    	mov    %eax,-0x88(%ebp)
   32c5d:	7e d1                	jle    32c30 <_svfprintf_r+0xd70>
   32c5f:	8b 45 0c             	mov    0xc(%ebp),%eax
   32c62:	89 5c 24 08          	mov    %ebx,0x8(%esp)
   32c66:	89 44 24 04          	mov    %eax,0x4(%esp)
   32c6a:	8b 45 08             	mov    0x8(%ebp),%eax
   32c6d:	89 04 24             	mov    %eax,(%esp)
   32c70:	e8 cb 3d 00 00       	call   36a40 <__ssprint_r>
   32c75:	85 c0                	test   %eax,%eax
   32c77:	0f 85 13 f4 ff ff    	jne    32090 <_svfprintf_r+0x1d0>
   32c7d:	83 ee 10             	sub    $0x10,%esi
   32c80:	8b 8d 7c ff ff ff    	mov    -0x84(%ebp),%ecx
   32c86:	83 fe 10             	cmp    $0x10,%esi
   32c89:	8b 85 78 ff ff ff    	mov    -0x88(%ebp),%eax
   32c8f:	8d 7d a8             	lea    -0x58(%ebp),%edi
   32c92:	7f a4                	jg     32c38 <_svfprintf_r+0xd78>
   32c94:	83 c0 01             	add    $0x1,%eax
   32c97:	01 f1                	add    %esi,%ecx
   32c99:	c7 07 68 9a 03 00    	movl   $0x39a68,(%edi)
   32c9f:	83 c7 08             	add    $0x8,%edi
   32ca2:	89 77 fc             	mov    %esi,-0x4(%edi)
   32ca5:	83 f8 07             	cmp    $0x7,%eax
   32ca8:	89 8d 7c ff ff ff    	mov    %ecx,-0x84(%ebp)
   32cae:	89 85 78 ff ff ff    	mov    %eax,-0x88(%ebp)
   32cb4:	0f 8e 88 fb ff ff    	jle    32842 <_svfprintf_r+0x982>
   32cba:	8d 85 74 ff ff ff    	lea    -0x8c(%ebp),%eax
   32cc0:	89 44 24 08          	mov    %eax,0x8(%esp)
   32cc4:	8b 45 0c             	mov    0xc(%ebp),%eax
   32cc7:	89 44 24 04          	mov    %eax,0x4(%esp)
   32ccb:	8b 45 08             	mov    0x8(%ebp),%eax
   32cce:	89 04 24             	mov    %eax,(%esp)
   32cd1:	e8 6a 3d 00 00       	call   36a40 <__ssprint_r>
   32cd6:	85 c0                	test   %eax,%eax
   32cd8:	0f 85 b2 f3 ff ff    	jne    32090 <_svfprintf_r+0x1d0>
   32cde:	8b 8d 7c ff ff ff    	mov    -0x84(%ebp),%ecx
   32ce4:	8d 7d a8             	lea    -0x58(%ebp),%edi
   32ce7:	e9 56 fb ff ff       	jmp    32842 <_svfprintf_r+0x982>
   32cec:	8d 74 26 00          	lea    0x0(%esi,%eiz,1),%esi
   32cf0:	83 bd 1c ff ff ff 01 	cmpl   $0x1,-0xe4(%ebp)
   32cf7:	8b 85 28 ff ff ff    	mov    -0xd8(%ebp),%eax
   32cfd:	0f 8e df 05 00 00    	jle    332e2 <_svfprintf_r+0x1422>
   32d03:	89 07                	mov    %eax,(%edi)
   32d05:	8b 85 78 ff ff ff    	mov    -0x88(%ebp),%eax
   32d0b:	8d 51 01             	lea    0x1(%ecx),%edx
   32d0e:	c7 47 04 01 00 00 00 	movl   $0x1,0x4(%edi)
   32d15:	83 c7 08             	add    $0x8,%edi
   32d18:	89 95 7c ff ff ff    	mov    %edx,-0x84(%ebp)
   32d1e:	83 c0 01             	add    $0x1,%eax
   32d21:	83 f8 07             	cmp    $0x7,%eax
   32d24:	89 85 78 ff ff ff    	mov    %eax,-0x88(%ebp)
   32d2a:	0f 8f 59 06 00 00    	jg     33389 <_svfprintf_r+0x14c9>
   32d30:	8b 9d 0c ff ff ff    	mov    -0xf4(%ebp),%ebx
   32d36:	83 c0 01             	add    $0x1,%eax
   32d39:	83 c7 08             	add    $0x8,%edi
   32d3c:	89 85 78 ff ff ff    	mov    %eax,-0x88(%ebp)
   32d42:	89 5f f8             	mov    %ebx,-0x8(%edi)
   32d45:	8b 9d 08 ff ff ff    	mov    -0xf8(%ebp),%ebx
   32d4b:	89 5f fc             	mov    %ebx,-0x4(%edi)
   32d4e:	01 da                	add    %ebx,%edx
   32d50:	83 f8 07             	cmp    $0x7,%eax
   32d53:	89 95 7c ff ff ff    	mov    %edx,-0x84(%ebp)
   32d59:	0f 8f f2 05 00 00    	jg     33351 <_svfprintf_r+0x1491>
   32d5f:	d9 ee                	fldz   
   32d61:	dd 85 10 ff ff ff    	fldl   -0xf0(%ebp)
   32d67:	df e9                	fucomip %st(1),%st
   32d69:	dd d8                	fstp   %st(0)
   32d6b:	7a 06                	jp     32d73 <_svfprintf_r+0xeb3>
   32d6d:	0f 84 33 03 00 00    	je     330a6 <_svfprintf_r+0x11e6>
   32d73:	8b 8d 28 ff ff ff    	mov    -0xd8(%ebp),%ecx
   32d79:	8b 9d 1c ff ff ff    	mov    -0xe4(%ebp),%ebx
   32d7f:	83 c1 01             	add    $0x1,%ecx
   32d82:	89 0f                	mov    %ecx,(%edi)
   32d84:	8d 4b ff             	lea    -0x1(%ebx),%ecx
   32d87:	89 4f 04             	mov    %ecx,0x4(%edi)
   32d8a:	01 ca                	add    %ecx,%edx
   32d8c:	83 c0 01             	add    $0x1,%eax
   32d8f:	83 f8 07             	cmp    $0x7,%eax
   32d92:	89 95 7c ff ff ff    	mov    %edx,-0x84(%ebp)
   32d98:	89 85 78 ff ff ff    	mov    %eax,-0x88(%ebp)
   32d9e:	0f 8f 75 05 00 00    	jg     33319 <_svfprintf_r+0x1459>
   32da4:	83 c7 08             	add    $0x8,%edi
   32da7:	8b 9d 04 ff ff ff    	mov    -0xfc(%ebp),%ebx
   32dad:	8d 8d 65 ff ff ff    	lea    -0x9b(%ebp),%ecx
   32db3:	89 0f                	mov    %ecx,(%edi)
   32db5:	89 5f 04             	mov    %ebx,0x4(%edi)
   32db8:	8d 0c 1a             	lea    (%edx,%ebx,1),%ecx
   32dbb:	83 c0 01             	add    $0x1,%eax
   32dbe:	83 f8 07             	cmp    $0x7,%eax
   32dc1:	89 8d 7c ff ff ff    	mov    %ecx,-0x84(%ebp)
   32dc7:	89 85 78 ff ff ff    	mov    %eax,-0x88(%ebp)
   32dcd:	0f 8e 96 fb ff ff    	jle    32969 <_svfprintf_r+0xaa9>
   32dd3:	8d 85 74 ff ff ff    	lea    -0x8c(%ebp),%eax
   32dd9:	89 44 24 08          	mov    %eax,0x8(%esp)
   32ddd:	8b 45 0c             	mov    0xc(%ebp),%eax
   32de0:	89 44 24 04          	mov    %eax,0x4(%esp)
   32de4:	8b 45 08             	mov    0x8(%ebp),%eax
   32de7:	89 04 24             	mov    %eax,(%esp)
   32dea:	e8 51 3c 00 00       	call   36a40 <__ssprint_r>
   32def:	85 c0                	test   %eax,%eax
   32df1:	0f 85 99 f2 ff ff    	jne    32090 <_svfprintf_r+0x1d0>
   32df7:	8b 8d 7c ff ff ff    	mov    -0x84(%ebp),%ecx
   32dfd:	8d 7d a8             	lea    -0x58(%ebp),%edi
   32e00:	e9 67 fb ff ff       	jmp    3296c <_svfprintf_r+0xaac>
   32e05:	8d 76 00             	lea    0x0(%esi),%esi
   32e08:	8d 85 74 ff ff ff    	lea    -0x8c(%ebp),%eax
   32e0e:	89 44 24 08          	mov    %eax,0x8(%esp)
   32e12:	8b 45 0c             	mov    0xc(%ebp),%eax
   32e15:	89 44 24 04          	mov    %eax,0x4(%esp)
   32e19:	8b 45 08             	mov    0x8(%ebp),%eax
   32e1c:	89 04 24             	mov    %eax,(%esp)
   32e1f:	e8 1c 3c 00 00       	call   36a40 <__ssprint_r>
   32e24:	85 c0                	test   %eax,%eax
   32e26:	0f 84 43 fc ff ff    	je     32a6f <_svfprintf_r+0xbaf>
   32e2c:	e9 5f f2 ff ff       	jmp    32090 <_svfprintf_r+0x1d0>
   32e31:	8d b4 26 00 00 00 00 	lea    0x0(%esi,%eiz,1),%esi
   32e38:	8d 85 74 ff ff ff    	lea    -0x8c(%ebp),%eax
   32e3e:	89 44 24 08          	mov    %eax,0x8(%esp)
   32e42:	8b 45 0c             	mov    0xc(%ebp),%eax
   32e45:	89 44 24 04          	mov    %eax,0x4(%esp)
   32e49:	8b 45 08             	mov    0x8(%ebp),%eax
   32e4c:	89 04 24             	mov    %eax,(%esp)
   32e4f:	e8 ec 3b 00 00       	call   36a40 <__ssprint_r>
   32e54:	85 c0                	test   %eax,%eax
   32e56:	0f 85 34 f2 ff ff    	jne    32090 <_svfprintf_r+0x1d0>
   32e5c:	8b 8d 7c ff ff ff    	mov    -0x84(%ebp),%ecx
   32e62:	8d 7d a8             	lea    -0x58(%ebp),%edi
   32e65:	e9 c8 f9 ff ff       	jmp    32832 <_svfprintf_r+0x972>
   32e6a:	8d b6 00 00 00 00    	lea    0x0(%esi),%esi
   32e70:	8d 85 74 ff ff ff    	lea    -0x8c(%ebp),%eax
   32e76:	89 44 24 08          	mov    %eax,0x8(%esp)
   32e7a:	8b 45 0c             	mov    0xc(%ebp),%eax
   32e7d:	89 44 24 04          	mov    %eax,0x4(%esp)
   32e81:	8b 45 08             	mov    0x8(%ebp),%eax
   32e84:	89 04 24             	mov    %eax,(%esp)
   32e87:	e8 b4 3b 00 00       	call   36a40 <__ssprint_r>
   32e8c:	85 c0                	test   %eax,%eax
   32e8e:	0f 85 fc f1 ff ff    	jne    32090 <_svfprintf_r+0x1d0>
   32e94:	8b 8d 7c ff ff ff    	mov    -0x84(%ebp),%ecx
   32e9a:	8d 7d a8             	lea    -0x58(%ebp),%edi
   32e9d:	e9 53 f9 ff ff       	jmp    327f5 <_svfprintf_r+0x935>
   32ea2:	8d b6 00 00 00 00    	lea    0x0(%esi),%esi
   32ea8:	89 c2                	mov    %eax,%edx
   32eaa:	8d b6 00 00 00 00    	lea    0x0(%esi),%esi
   32eb0:	89 c8                	mov    %ecx,%eax
   32eb2:	83 ea 01             	sub    $0x1,%edx
   32eb5:	83 e0 07             	and    $0x7,%eax
   32eb8:	c1 e9 03             	shr    $0x3,%ecx
   32ebb:	83 c0 30             	add    $0x30,%eax
   32ebe:	85 c9                	test   %ecx,%ecx
   32ec0:	88 02                	mov    %al,(%edx)
   32ec2:	75 ec                	jne    32eb0 <_svfprintf_r+0xff0>
   32ec4:	f6 85 4c ff ff ff 01 	testb  $0x1,-0xb4(%ebp)
   32ecb:	89 95 28 ff ff ff    	mov    %edx,-0xd8(%ebp)
   32ed1:	0f 84 5b 01 00 00    	je     33032 <_svfprintf_r+0x1172>
   32ed7:	3c 30                	cmp    $0x30,%al
   32ed9:	74 0b                	je     32ee6 <_svfprintf_r+0x1026>
   32edb:	83 ad 28 ff ff ff 01 	subl   $0x1,-0xd8(%ebp)
   32ee2:	c6 42 ff 30          	movb   $0x30,-0x1(%edx)
   32ee6:	8d 45 a8             	lea    -0x58(%ebp),%eax
   32ee9:	2b 85 28 ff ff ff    	sub    -0xd8(%ebp),%eax
   32eef:	89 85 38 ff ff ff    	mov    %eax,-0xc8(%ebp)
   32ef5:	e9 1e f4 ff ff       	jmp    32318 <_svfprintf_r+0x458>
   32efa:	8d b6 00 00 00 00    	lea    0x0(%esi),%esi
   32f00:	8b 9d 5c ff ff ff    	mov    -0xa4(%ebp),%ebx
   32f06:	85 db                	test   %ebx,%ebx
   32f08:	0f 8e 66 05 00 00    	jle    33474 <_svfprintf_r+0x15b4>
   32f0e:	8b 95 28 ff ff ff    	mov    -0xd8(%ebp),%edx
   32f14:	8b 85 1c ff ff ff    	mov    -0xe4(%ebp),%eax
   32f1a:	01 d0                	add    %edx,%eax
   32f1c:	89 c3                	mov    %eax,%ebx
   32f1e:	29 d3                	sub    %edx,%ebx
   32f20:	89 85 44 ff ff ff    	mov    %eax,-0xbc(%ebp)
   32f26:	89 d0                	mov    %edx,%eax
   32f28:	8b 95 20 ff ff ff    	mov    -0xe0(%ebp),%edx
   32f2e:	39 d3                	cmp    %edx,%ebx
   32f30:	0f 4f da             	cmovg  %edx,%ebx
   32f33:	85 db                	test   %ebx,%ebx
   32f35:	7e 28                	jle    32f5f <_svfprintf_r+0x109f>
   32f37:	89 07                	mov    %eax,(%edi)
   32f39:	8b 85 78 ff ff ff    	mov    -0x88(%ebp),%eax
   32f3f:	01 d9                	add    %ebx,%ecx
   32f41:	89 5f 04             	mov    %ebx,0x4(%edi)
   32f44:	83 c7 08             	add    $0x8,%edi
   32f47:	89 8d 7c ff ff ff    	mov    %ecx,-0x84(%ebp)
   32f4d:	83 c0 01             	add    $0x1,%eax
   32f50:	83 f8 07             	cmp    $0x7,%eax
   32f53:	89 85 78 ff ff ff    	mov    %eax,-0x88(%ebp)
   32f59:	0f 8f 58 09 00 00    	jg     338b7 <_svfprintf_r+0x19f7>
   32f5f:	8b b5 20 ff ff ff    	mov    -0xe0(%ebp),%esi
   32f65:	31 c0                	xor    %eax,%eax
   32f67:	85 db                	test   %ebx,%ebx
   32f69:	0f 49 c3             	cmovns %ebx,%eax
   32f6c:	29 c6                	sub    %eax,%esi
   32f6e:	85 f6                	test   %esi,%esi
   32f70:	0f 8e 40 02 00 00    	jle    331b6 <_svfprintf_r+0x12f6>
   32f76:	83 fe 10             	cmp    $0x10,%esi
   32f79:	8b 85 78 ff ff ff    	mov    -0x88(%ebp),%eax
   32f7f:	8d 9d 74 ff ff ff    	lea    -0x8c(%ebp),%ebx
   32f85:	7f 15                	jg     32f9c <_svfprintf_r+0x10dc>
   32f87:	e9 db 01 00 00       	jmp    33167 <_svfprintf_r+0x12a7>
   32f8c:	8d 74 26 00          	lea    0x0(%esi,%eiz,1),%esi
   32f90:	83 ee 10             	sub    $0x10,%esi
   32f93:	83 fe 10             	cmp    $0x10,%esi
   32f96:	0f 8e cb 01 00 00    	jle    33167 <_svfprintf_r+0x12a7>
   32f9c:	83 c0 01             	add    $0x1,%eax
   32f9f:	83 c1 10             	add    $0x10,%ecx
   32fa2:	c7 07 68 9a 03 00    	movl   $0x39a68,(%edi)
   32fa8:	83 c7 08             	add    $0x8,%edi
   32fab:	c7 47 fc 10 00 00 00 	movl   $0x10,-0x4(%edi)
   32fb2:	83 f8 07             	cmp    $0x7,%eax
   32fb5:	89 8d 7c ff ff ff    	mov    %ecx,-0x84(%ebp)
   32fbb:	89 85 78 ff ff ff    	mov    %eax,-0x88(%ebp)
   32fc1:	7e cd                	jle    32f90 <_svfprintf_r+0x10d0>
   32fc3:	8b 45 0c             	mov    0xc(%ebp),%eax
   32fc6:	89 5c 24 08          	mov    %ebx,0x8(%esp)
   32fca:	89 44 24 04          	mov    %eax,0x4(%esp)
   32fce:	8b 45 08             	mov    0x8(%ebp),%eax
   32fd1:	89 04 24             	mov    %eax,(%esp)
   32fd4:	e8 67 3a 00 00       	call   36a40 <__ssprint_r>
   32fd9:	85 c0                	test   %eax,%eax
   32fdb:	0f 85 af f0 ff ff    	jne    32090 <_svfprintf_r+0x1d0>
   32fe1:	8b 8d 7c ff ff ff    	mov    -0x84(%ebp),%ecx
   32fe7:	8d 7d a8             	lea    -0x58(%ebp),%edi
   32fea:	8b 85 78 ff ff ff    	mov    -0x88(%ebp),%eax
   32ff0:	eb 9e                	jmp    32f90 <_svfprintf_r+0x10d0>
   32ff2:	8d 45 a8             	lea    -0x58(%ebp),%eax
   32ff5:	be cd cc cc cc       	mov    $0xcccccccd,%esi
   32ffa:	89 bd 48 ff ff ff    	mov    %edi,-0xb8(%ebp)
   33000:	89 c7                	mov    %eax,%edi
   33002:	8d b6 00 00 00 00    	lea    0x0(%esi),%esi
   33008:	89 c8                	mov    %ecx,%eax
   3300a:	83 ef 01             	sub    $0x1,%edi
   3300d:	f7 e6                	mul    %esi
   3300f:	c1 ea 03             	shr    $0x3,%edx
   33012:	8d 04 92             	lea    (%edx,%edx,4),%eax
   33015:	01 c0                	add    %eax,%eax
   33017:	29 c1                	sub    %eax,%ecx
   33019:	83 c1 30             	add    $0x30,%ecx
   3301c:	85 d2                	test   %edx,%edx
   3301e:	88 0f                	mov    %cl,(%edi)
   33020:	89 d1                	mov    %edx,%ecx
   33022:	75 e4                	jne    33008 <_svfprintf_r+0x1148>
   33024:	89 fa                	mov    %edi,%edx
   33026:	89 bd 28 ff ff ff    	mov    %edi,-0xd8(%ebp)
   3302c:	8b bd 48 ff ff ff    	mov    -0xb8(%ebp),%edi
   33032:	8d 45 a8             	lea    -0x58(%ebp),%eax
   33035:	29 d0                	sub    %edx,%eax
   33037:	89 85 38 ff ff ff    	mov    %eax,-0xc8(%ebp)
   3303d:	e9 d6 f2 ff ff       	jmp    32318 <_svfprintf_r+0x458>
   33042:	8d b6 00 00 00 00    	lea    0x0(%esi),%esi
   33048:	83 f9 09             	cmp    $0x9,%ecx
   3304b:	77 a5                	ja     32ff2 <_svfprintf_r+0x1132>
   3304d:	8b 85 00 ff ff ff    	mov    -0x100(%ebp),%eax
   33053:	83 c1 30             	add    $0x30,%ecx
   33056:	88 4d a7             	mov    %cl,-0x59(%ebp)
   33059:	89 85 38 ff ff ff    	mov    %eax,-0xc8(%ebp)
   3305f:	8d 45 a7             	lea    -0x59(%ebp),%eax
   33062:	89 85 28 ff ff ff    	mov    %eax,-0xd8(%ebp)
   33068:	e9 ab f2 ff ff       	jmp    32318 <_svfprintf_r+0x458>
   3306d:	8d 85 74 ff ff ff    	lea    -0x8c(%ebp),%eax
   33073:	89 44 24 08          	mov    %eax,0x8(%esp)
   33077:	8b 45 0c             	mov    0xc(%ebp),%eax
   3307a:	89 44 24 04          	mov    %eax,0x4(%esp)
   3307e:	8b 45 08             	mov    0x8(%ebp),%eax
   33081:	89 04 24             	mov    %eax,(%esp)
   33084:	e8 b7 39 00 00       	call   36a40 <__ssprint_r>
   33089:	85 c0                	test   %eax,%eax
   3308b:	0f 85 ff ef ff ff    	jne    32090 <_svfprintf_r+0x1d0>
   33091:	0f b6 9d 59 ff ff ff 	movzbl -0xa7(%ebp),%ebx
   33098:	8d 7d a8             	lea    -0x58(%ebp),%edi
   3309b:	8b 8d 7c ff ff ff    	mov    -0x84(%ebp),%ecx
   330a1:	e9 18 f7 ff ff       	jmp    327be <_svfprintf_r+0x8fe>
   330a6:	8b 9d 1c ff ff ff    	mov    -0xe4(%ebp),%ebx
   330ac:	8d 73 ff             	lea    -0x1(%ebx),%esi
   330af:	85 f6                	test   %esi,%esi
   330b1:	0f 8e f0 fc ff ff    	jle    32da7 <_svfprintf_r+0xee7>
   330b7:	83 fe 10             	cmp    $0x10,%esi
   330ba:	7e 70                	jle    3312c <_svfprintf_r+0x126c>
   330bc:	8d 9d 74 ff ff ff    	lea    -0x8c(%ebp),%ebx
   330c2:	eb 0c                	jmp    330d0 <_svfprintf_r+0x1210>
   330c4:	8d 74 26 00          	lea    0x0(%esi,%eiz,1),%esi
   330c8:	83 ee 10             	sub    $0x10,%esi
   330cb:	83 fe 10             	cmp    $0x10,%esi
   330ce:	7e 5c                	jle    3312c <_svfprintf_r+0x126c>
   330d0:	83 c0 01             	add    $0x1,%eax
   330d3:	83 c2 10             	add    $0x10,%edx
   330d6:	c7 07 68 9a 03 00    	movl   $0x39a68,(%edi)
   330dc:	83 c7 08             	add    $0x8,%edi
   330df:	c7 47 fc 10 00 00 00 	movl   $0x10,-0x4(%edi)
   330e6:	83 f8 07             	cmp    $0x7,%eax
   330e9:	89 95 7c ff ff ff    	mov    %edx,-0x84(%ebp)
   330ef:	89 85 78 ff ff ff    	mov    %eax,-0x88(%ebp)
   330f5:	7e d1                	jle    330c8 <_svfprintf_r+0x1208>
   330f7:	8b 45 0c             	mov    0xc(%ebp),%eax
   330fa:	89 5c 24 08          	mov    %ebx,0x8(%esp)
   330fe:	89 44 24 04          	mov    %eax,0x4(%esp)
   33102:	8b 45 08             	mov    0x8(%ebp),%eax
   33105:	89 04 24             	mov    %eax,(%esp)
   33108:	e8 33 39 00 00       	call   36a40 <__ssprint_r>
   3310d:	85 c0                	test   %eax,%eax
   3310f:	0f 85 7b ef ff ff    	jne    32090 <_svfprintf_r+0x1d0>
   33115:	83 ee 10             	sub    $0x10,%esi
   33118:	8b 95 7c ff ff ff    	mov    -0x84(%ebp),%edx
   3311e:	83 fe 10             	cmp    $0x10,%esi
   33121:	8b 85 78 ff ff ff    	mov    -0x88(%ebp),%eax
   33127:	8d 7d a8             	lea    -0x58(%ebp),%edi
   3312a:	7f a4                	jg     330d0 <_svfprintf_r+0x1210>
   3312c:	c7 07 68 9a 03 00    	movl   $0x39a68,(%edi)
   33132:	01 f2                	add    %esi,%edx
   33134:	89 77 04             	mov    %esi,0x4(%edi)
   33137:	e9 50 fc ff ff       	jmp    32d8c <_svfprintf_r+0xecc>
   3313c:	c7 07 68 9a 03 00    	movl   $0x39a68,(%edi)
   33142:	01 f1                	add    %esi,%ecx
   33144:	89 77 04             	mov    %esi,0x4(%edi)
   33147:	e9 6f fc ff ff       	jmp    32dbb <_svfprintf_r+0xefb>
   3314c:	8b 45 14             	mov    0x14(%ebp),%eax
   3314f:	8b 95 34 ff ff ff    	mov    -0xcc(%ebp),%edx
   33155:	8b 00                	mov    (%eax),%eax
   33157:	89 10                	mov    %edx,(%eax)
   33159:	8b 45 14             	mov    0x14(%ebp),%eax
   3315c:	83 c0 04             	add    $0x4,%eax
   3315f:	89 45 14             	mov    %eax,0x14(%ebp)
   33162:	e9 f4 ed ff ff       	jmp    31f5b <_svfprintf_r+0x9b>
   33167:	83 c0 01             	add    $0x1,%eax
   3316a:	01 f1                	add    %esi,%ecx
   3316c:	c7 07 68 9a 03 00    	movl   $0x39a68,(%edi)
   33172:	83 c7 08             	add    $0x8,%edi
   33175:	89 77 fc             	mov    %esi,-0x4(%edi)
   33178:	83 f8 07             	cmp    $0x7,%eax
   3317b:	89 8d 7c ff ff ff    	mov    %ecx,-0x84(%ebp)
   33181:	89 85 78 ff ff ff    	mov    %eax,-0x88(%ebp)
   33187:	7e 2d                	jle    331b6 <_svfprintf_r+0x12f6>
   33189:	8d 85 74 ff ff ff    	lea    -0x8c(%ebp),%eax
   3318f:	89 44 24 08          	mov    %eax,0x8(%esp)
   33193:	8b 45 0c             	mov    0xc(%ebp),%eax
   33196:	89 44 24 04          	mov    %eax,0x4(%esp)
   3319a:	8b 45 08             	mov    0x8(%ebp),%eax
   3319d:	89 04 24             	mov    %eax,(%esp)
   331a0:	e8 9b 38 00 00       	call   36a40 <__ssprint_r>
   331a5:	85 c0                	test   %eax,%eax
   331a7:	0f 85 e3 ee ff ff    	jne    32090 <_svfprintf_r+0x1d0>
   331ad:	8b 8d 7c ff ff ff    	mov    -0x84(%ebp),%ecx
   331b3:	8d 7d a8             	lea    -0x58(%ebp),%edi
   331b6:	8b 85 28 ff ff ff    	mov    -0xd8(%ebp),%eax
   331bc:	8b 95 5c ff ff ff    	mov    -0xa4(%ebp),%edx
   331c2:	03 85 20 ff ff ff    	add    -0xe0(%ebp),%eax
   331c8:	3b 95 1c ff ff ff    	cmp    -0xe4(%ebp),%edx
   331ce:	89 c6                	mov    %eax,%esi
   331d0:	7c 0d                	jl     331df <_svfprintf_r+0x131f>
   331d2:	f6 85 4c ff ff ff 01 	testb  $0x1,-0xb4(%ebp)
   331d9:	0f 84 5e 05 00 00    	je     3373d <_svfprintf_r+0x187d>
   331df:	8b 85 0c ff ff ff    	mov    -0xf4(%ebp),%eax
   331e5:	89 07                	mov    %eax,(%edi)
   331e7:	8b 85 08 ff ff ff    	mov    -0xf8(%ebp),%eax
   331ed:	01 c1                	add    %eax,%ecx
   331ef:	89 47 04             	mov    %eax,0x4(%edi)
   331f2:	8b 85 78 ff ff ff    	mov    -0x88(%ebp),%eax
   331f8:	89 8d 7c ff ff ff    	mov    %ecx,-0x84(%ebp)
   331fe:	83 c0 01             	add    $0x1,%eax
   33201:	83 f8 07             	cmp    $0x7,%eax
   33204:	89 85 78 ff ff ff    	mov    %eax,-0x88(%ebp)
   3320a:	0f 8f d9 06 00 00    	jg     338e9 <_svfprintf_r+0x1a29>
   33210:	83 c7 08             	add    $0x8,%edi
   33213:	89 d0                	mov    %edx,%eax
   33215:	8b 9d 44 ff ff ff    	mov    -0xbc(%ebp),%ebx
   3321b:	89 f2                	mov    %esi,%edx
   3321d:	29 f3                	sub    %esi,%ebx
   3321f:	8b b5 1c ff ff ff    	mov    -0xe4(%ebp),%esi
   33225:	29 c6                	sub    %eax,%esi
   33227:	39 de                	cmp    %ebx,%esi
   33229:	0f 4e de             	cmovle %esi,%ebx
   3322c:	85 db                	test   %ebx,%ebx
   3322e:	7e 29                	jle    33259 <_svfprintf_r+0x1399>
   33230:	8b 85 78 ff ff ff    	mov    -0x88(%ebp),%eax
   33236:	01 d9                	add    %ebx,%ecx
   33238:	83 c7 08             	add    $0x8,%edi
   3323b:	89 57 f8             	mov    %edx,-0x8(%edi)
   3323e:	89 5f fc             	mov    %ebx,-0x4(%edi)
   33241:	89 8d 7c ff ff ff    	mov    %ecx,-0x84(%ebp)
   33247:	83 c0 01             	add    $0x1,%eax
   3324a:	83 f8 07             	cmp    $0x7,%eax
   3324d:	89 85 78 ff ff ff    	mov    %eax,-0x88(%ebp)
   33253:	0f 8f c8 06 00 00    	jg     33921 <_svfprintf_r+0x1a61>
   33259:	31 c0                	xor    %eax,%eax
   3325b:	85 db                	test   %ebx,%ebx
   3325d:	0f 49 c3             	cmovns %ebx,%eax
   33260:	29 c6                	sub    %eax,%esi
   33262:	85 f6                	test   %esi,%esi
   33264:	0f 8e 02 f7 ff ff    	jle    3296c <_svfprintf_r+0xaac>
   3326a:	83 fe 10             	cmp    $0x10,%esi
   3326d:	8b 85 78 ff ff ff    	mov    -0x88(%ebp),%eax
   33273:	8d 9d 74 ff ff ff    	lea    -0x8c(%ebp),%ebx
   33279:	7f 11                	jg     3328c <_svfprintf_r+0x13cc>
   3327b:	e9 bc fe ff ff       	jmp    3313c <_svfprintf_r+0x127c>
   33280:	83 ee 10             	sub    $0x10,%esi
   33283:	83 fe 10             	cmp    $0x10,%esi
   33286:	0f 8e b0 fe ff ff    	jle    3313c <_svfprintf_r+0x127c>
   3328c:	83 c0 01             	add    $0x1,%eax
   3328f:	83 c1 10             	add    $0x10,%ecx
   33292:	c7 07 68 9a 03 00    	movl   $0x39a68,(%edi)
   33298:	83 c7 08             	add    $0x8,%edi
   3329b:	c7 47 fc 10 00 00 00 	movl   $0x10,-0x4(%edi)
   332a2:	83 f8 07             	cmp    $0x7,%eax
   332a5:	89 8d 7c ff ff ff    	mov    %ecx,-0x84(%ebp)
   332ab:	89 85 78 ff ff ff    	mov    %eax,-0x88(%ebp)
   332b1:	7e cd                	jle    33280 <_svfprintf_r+0x13c0>
   332b3:	8b 45 0c             	mov    0xc(%ebp),%eax
   332b6:	89 5c 24 08          	mov    %ebx,0x8(%esp)
   332ba:	89 44 24 04          	mov    %eax,0x4(%esp)
   332be:	8b 45 08             	mov    0x8(%ebp),%eax
   332c1:	89 04 24             	mov    %eax,(%esp)
   332c4:	e8 77 37 00 00       	call   36a40 <__ssprint_r>
   332c9:	85 c0                	test   %eax,%eax
   332cb:	0f 85 bf ed ff ff    	jne    32090 <_svfprintf_r+0x1d0>
   332d1:	8b 8d 7c ff ff ff    	mov    -0x84(%ebp),%ecx
   332d7:	8d 7d a8             	lea    -0x58(%ebp),%edi
   332da:	8b 85 78 ff ff ff    	mov    -0x88(%ebp),%eax
   332e0:	eb 9e                	jmp    33280 <_svfprintf_r+0x13c0>
   332e2:	f6 85 4c ff ff ff 01 	testb  $0x1,-0xb4(%ebp)
   332e9:	0f 85 14 fa ff ff    	jne    32d03 <_svfprintf_r+0xe43>
   332ef:	89 07                	mov    %eax,(%edi)
   332f1:	8b 85 78 ff ff ff    	mov    -0x88(%ebp),%eax
   332f7:	8d 51 01             	lea    0x1(%ecx),%edx
   332fa:	c7 47 04 01 00 00 00 	movl   $0x1,0x4(%edi)
   33301:	89 95 7c ff ff ff    	mov    %edx,-0x84(%ebp)
   33307:	83 c0 01             	add    $0x1,%eax
   3330a:	83 f8 07             	cmp    $0x7,%eax
   3330d:	89 85 78 ff ff ff    	mov    %eax,-0x88(%ebp)
   33313:	0f 8e 8b fa ff ff    	jle    32da4 <_svfprintf_r+0xee4>
   33319:	8d 85 74 ff ff ff    	lea    -0x8c(%ebp),%eax
   3331f:	89 44 24 08          	mov    %eax,0x8(%esp)
   33323:	8b 45 0c             	mov    0xc(%ebp),%eax
   33326:	89 44 24 04          	mov    %eax,0x4(%esp)
   3332a:	8b 45 08             	mov    0x8(%ebp),%eax
   3332d:	89 04 24             	mov    %eax,(%esp)
   33330:	e8 0b 37 00 00       	call   36a40 <__ssprint_r>
   33335:	85 c0                	test   %eax,%eax
   33337:	0f 85 53 ed ff ff    	jne    32090 <_svfprintf_r+0x1d0>
   3333d:	8b 95 7c ff ff ff    	mov    -0x84(%ebp),%edx
   33343:	8d 7d a8             	lea    -0x58(%ebp),%edi
   33346:	8b 85 78 ff ff ff    	mov    -0x88(%ebp),%eax
   3334c:	e9 56 fa ff ff       	jmp    32da7 <_svfprintf_r+0xee7>
   33351:	8d 85 74 ff ff ff    	lea    -0x8c(%ebp),%eax
   33357:	89 44 24 08          	mov    %eax,0x8(%esp)
   3335b:	8b 45 0c             	mov    0xc(%ebp),%eax
   3335e:	89 44 24 04          	mov    %eax,0x4(%esp)
   33362:	8b 45 08             	mov    0x8(%ebp),%eax
   33365:	89 04 24             	mov    %eax,(%esp)
   33368:	e8 d3 36 00 00       	call   36a40 <__ssprint_r>
   3336d:	85 c0                	test   %eax,%eax
   3336f:	0f 85 1b ed ff ff    	jne    32090 <_svfprintf_r+0x1d0>
   33375:	8b 95 7c ff ff ff    	mov    -0x84(%ebp),%edx
   3337b:	8d 7d a8             	lea    -0x58(%ebp),%edi
   3337e:	8b 85 78 ff ff ff    	mov    -0x88(%ebp),%eax
   33384:	e9 d6 f9 ff ff       	jmp    32d5f <_svfprintf_r+0xe9f>
   33389:	8d 85 74 ff ff ff    	lea    -0x8c(%ebp),%eax
   3338f:	89 44 24 08          	mov    %eax,0x8(%esp)
   33393:	8b 45 0c             	mov    0xc(%ebp),%eax
   33396:	89 44 24 04          	mov    %eax,0x4(%esp)
   3339a:	8b 45 08             	mov    0x8(%ebp),%eax
   3339d:	89 04 24             	mov    %eax,(%esp)
   333a0:	e8 9b 36 00 00       	call   36a40 <__ssprint_r>
   333a5:	85 c0                	test   %eax,%eax
   333a7:	0f 85 e3 ec ff ff    	jne    32090 <_svfprintf_r+0x1d0>
   333ad:	8b 95 7c ff ff ff    	mov    -0x84(%ebp),%edx
   333b3:	8d 7d a8             	lea    -0x58(%ebp),%edi
   333b6:	8b 85 78 ff ff ff    	mov    -0x88(%ebp),%eax
   333bc:	e9 6f f9 ff ff       	jmp    32d30 <_svfprintf_r+0xe70>
   333c1:	dd 85 10 ff ff ff    	fldl   -0xf0(%ebp)
   333c7:	dd 1c 24             	fstpl  (%esp)
   333ca:	e8 11 35 00 00       	call   368e0 <__fpclassifyd>
   333cf:	85 c0                	test   %eax,%eax
   333d1:	0f 85 a3 01 00 00    	jne    3357a <_svfprintf_r+0x16ba>
   333d7:	83 bd 24 ff ff ff 47 	cmpl   $0x47,-0xdc(%ebp)
   333de:	ba ce 98 03 00       	mov    $0x398ce,%edx
   333e3:	b8 d2 98 03 00       	mov    $0x398d2,%eax
   333e8:	0f b6 9d 59 ff ff ff 	movzbl -0xa7(%ebp),%ebx
   333ef:	c7 85 48 ff ff ff 03 	movl   $0x3,-0xb8(%ebp)
   333f6:	00 00 00 
   333f9:	0f 4e c2             	cmovle %edx,%eax
   333fc:	89 85 28 ff ff ff    	mov    %eax,-0xd8(%ebp)
   33402:	81 a5 4c ff ff ff 7f 	andl   $0xffffff7f,-0xb4(%ebp)
   33409:	ff ff ff 
   3340c:	c7 85 38 ff ff ff 03 	movl   $0x3,-0xc8(%ebp)
   33413:	00 00 00 
   33416:	c7 85 44 ff ff ff 00 	movl   $0x0,-0xbc(%ebp)
   3341d:	00 00 00 
   33420:	c7 85 20 ff ff ff 00 	movl   $0x0,-0xe0(%ebp)
   33427:	00 00 00 
   3342a:	e9 29 ed ff ff       	jmp    32158 <_svfprintf_r+0x298>
   3342f:	dd 00                	fldl   (%eax)
   33431:	83 c0 08             	add    $0x8,%eax
   33434:	dd 9d 10 ff ff ff    	fstpl  -0xf0(%ebp)
   3343a:	89 45 14             	mov    %eax,0x14(%ebp)
   3343d:	e9 e6 ef ff ff       	jmp    32428 <_svfprintf_r+0x568>
   33442:	8d 85 74 ff ff ff    	lea    -0x8c(%ebp),%eax
   33448:	89 44 24 08          	mov    %eax,0x8(%esp)
   3344c:	8b 45 0c             	mov    0xc(%ebp),%eax
   3344f:	89 44 24 04          	mov    %eax,0x4(%esp)
   33453:	8b 45 08             	mov    0x8(%ebp),%eax
   33456:	89 04 24             	mov    %eax,(%esp)
   33459:	e8 e2 35 00 00       	call   36a40 <__ssprint_r>
   3345e:	85 c0                	test   %eax,%eax
   33460:	0f 85 2a ec ff ff    	jne    32090 <_svfprintf_r+0x1d0>
   33466:	8b 8d 7c ff ff ff    	mov    -0x84(%ebp),%ecx
   3346c:	8d 7d a8             	lea    -0x58(%ebp),%edi
   3346f:	e9 6b f6 ff ff       	jmp    32adf <_svfprintf_r+0xc1f>
   33474:	8b 85 78 ff ff ff    	mov    -0x88(%ebp),%eax
   3347a:	83 c1 01             	add    $0x1,%ecx
   3347d:	83 c7 08             	add    $0x8,%edi
   33480:	c7 47 f8 ff 98 03 00 	movl   $0x398ff,-0x8(%edi)
   33487:	c7 47 fc 01 00 00 00 	movl   $0x1,-0x4(%edi)
   3348e:	89 8d 7c ff ff ff    	mov    %ecx,-0x84(%ebp)
   33494:	83 c0 01             	add    $0x1,%eax
   33497:	83 f8 07             	cmp    $0x7,%eax
   3349a:	89 85 78 ff ff ff    	mov    %eax,-0x88(%ebp)
   334a0:	0f 8f ef 02 00 00    	jg     33795 <_svfprintf_r+0x18d5>
   334a6:	85 db                	test   %ebx,%ebx
   334a8:	75 17                	jne    334c1 <_svfprintf_r+0x1601>
   334aa:	8b 95 1c ff ff ff    	mov    -0xe4(%ebp),%edx
   334b0:	85 d2                	test   %edx,%edx
   334b2:	75 0d                	jne    334c1 <_svfprintf_r+0x1601>
   334b4:	f6 85 4c ff ff ff 01 	testb  $0x1,-0xb4(%ebp)
   334bb:	0f 84 ab f4 ff ff    	je     3296c <_svfprintf_r+0xaac>
   334c1:	8b 85 0c ff ff ff    	mov    -0xf4(%ebp),%eax
   334c7:	83 c7 08             	add    $0x8,%edi
   334ca:	89 47 f8             	mov    %eax,-0x8(%edi)
   334cd:	8b 85 08 ff ff ff    	mov    -0xf8(%ebp),%eax
   334d3:	89 47 fc             	mov    %eax,-0x4(%edi)
   334d6:	8d 14 01             	lea    (%ecx,%eax,1),%edx
   334d9:	8b 85 78 ff ff ff    	mov    -0x88(%ebp),%eax
   334df:	89 95 7c ff ff ff    	mov    %edx,-0x84(%ebp)
   334e5:	83 c0 01             	add    $0x1,%eax
   334e8:	83 f8 07             	cmp    $0x7,%eax
   334eb:	89 85 78 ff ff ff    	mov    %eax,-0x88(%ebp)
   334f1:	0f 8f 60 03 00 00    	jg     33857 <_svfprintf_r+0x1997>
   334f7:	f7 db                	neg    %ebx
   334f9:	85 db                	test   %ebx,%ebx
   334fb:	0f 8e 21 03 00 00    	jle    33822 <_svfprintf_r+0x1962>
   33501:	83 fb 10             	cmp    $0x10,%ebx
   33504:	0f 8e c3 02 00 00    	jle    337cd <_svfprintf_r+0x190d>
   3350a:	8d b5 74 ff ff ff    	lea    -0x8c(%ebp),%esi
   33510:	eb 12                	jmp    33524 <_svfprintf_r+0x1664>
   33512:	8d b6 00 00 00 00    	lea    0x0(%esi),%esi
   33518:	83 eb 10             	sub    $0x10,%ebx
   3351b:	83 fb 10             	cmp    $0x10,%ebx
   3351e:	0f 8e a9 02 00 00    	jle    337cd <_svfprintf_r+0x190d>
   33524:	83 c0 01             	add    $0x1,%eax
   33527:	83 c2 10             	add    $0x10,%edx
   3352a:	c7 07 68 9a 03 00    	movl   $0x39a68,(%edi)
   33530:	83 c7 08             	add    $0x8,%edi
   33533:	c7 47 fc 10 00 00 00 	movl   $0x10,-0x4(%edi)
   3353a:	83 f8 07             	cmp    $0x7,%eax
   3353d:	89 95 7c ff ff ff    	mov    %edx,-0x84(%ebp)
   33543:	89 85 78 ff ff ff    	mov    %eax,-0x88(%ebp)
   33549:	7e cd                	jle    33518 <_svfprintf_r+0x1658>
   3354b:	8b 45 0c             	mov    0xc(%ebp),%eax
   3354e:	89 74 24 08          	mov    %esi,0x8(%esp)
   33552:	89 44 24 04          	mov    %eax,0x4(%esp)
   33556:	8b 45 08             	mov    0x8(%ebp),%eax
   33559:	89 04 24             	mov    %eax,(%esp)
   3355c:	e8 df 34 00 00       	call   36a40 <__ssprint_r>
   33561:	85 c0                	test   %eax,%eax
   33563:	0f 85 27 eb ff ff    	jne    32090 <_svfprintf_r+0x1d0>
   33569:	8b 95 7c ff ff ff    	mov    -0x84(%ebp),%edx
   3356f:	8d 7d a8             	lea    -0x58(%ebp),%edi
   33572:	8b 85 78 ff ff ff    	mov    -0x88(%ebp),%eax
   33578:	eb 9e                	jmp    33518 <_svfprintf_r+0x1658>
   3357a:	8b 9d 24 ff ff ff    	mov    -0xdc(%ebp),%ebx
   33580:	83 e3 df             	and    $0xffffffdf,%ebx
   33583:	83 bd 44 ff ff ff ff 	cmpl   $0xffffffff,-0xbc(%ebp)
   3358a:	0f 84 05 03 00 00    	je     33895 <_svfprintf_r+0x19d5>
   33590:	83 fb 47             	cmp    $0x47,%ebx
   33593:	75 16                	jne    335ab <_svfprintf_r+0x16eb>
   33595:	8b 95 44 ff ff ff    	mov    -0xbc(%ebp),%edx
   3359b:	b8 01 00 00 00       	mov    $0x1,%eax
   335a0:	85 d2                	test   %edx,%edx
   335a2:	0f 45 c2             	cmovne %edx,%eax
   335a5:	89 85 44 ff ff ff    	mov    %eax,-0xbc(%ebp)
   335ab:	8b 85 4c ff ff ff    	mov    -0xb4(%ebp),%eax
   335b1:	dd 85 10 ff ff ff    	fldl   -0xf0(%ebp)
   335b7:	dd 95 38 ff ff ff    	fstl   -0xc8(%ebp)
   335bd:	80 cc 01             	or     $0x1,%ah
   335c0:	89 85 30 ff ff ff    	mov    %eax,-0xd0(%ebp)
   335c6:	8b 85 3c ff ff ff    	mov    -0xc4(%ebp),%eax
   335cc:	c6 85 48 ff ff ff 00 	movb   $0x0,-0xb8(%ebp)
   335d3:	85 c0                	test   %eax,%eax
   335d5:	0f 88 ba 05 00 00    	js     33b95 <_svfprintf_r+0x1cd5>
   335db:	83 fb 46             	cmp    $0x46,%ebx
   335de:	0f 94 c0             	sete   %al
   335e1:	89 c6                	mov    %eax,%esi
   335e3:	0f 84 d4 03 00 00    	je     339bd <_svfprintf_r+0x1afd>
   335e9:	83 fb 45             	cmp    $0x45,%ebx
   335ec:	0f 85 99 05 00 00    	jne    33b8b <_svfprintf_r+0x1ccb>
   335f2:	8b 85 44 ff ff ff    	mov    -0xbc(%ebp),%eax
   335f8:	dd 54 24 04          	fstl   0x4(%esp)
   335fc:	c7 44 24 0c 02 00 00 	movl   $0x2,0xc(%esp)
   33603:	00 
   33604:	dd 9d 38 ff ff ff    	fstpl  -0xc8(%ebp)
   3360a:	8d 70 01             	lea    0x1(%eax),%esi
   3360d:	8d 85 6c ff ff ff    	lea    -0x94(%ebp),%eax
   33613:	89 44 24 1c          	mov    %eax,0x1c(%esp)
   33617:	8d 85 60 ff ff ff    	lea    -0xa0(%ebp),%eax
   3361d:	89 44 24 18          	mov    %eax,0x18(%esp)
   33621:	8d 85 5c ff ff ff    	lea    -0xa4(%ebp),%eax
   33627:	89 44 24 14          	mov    %eax,0x14(%esp)
   3362b:	8b 45 08             	mov    0x8(%ebp),%eax
   3362e:	89 74 24 10          	mov    %esi,0x10(%esp)
   33632:	89 04 24             	mov    %eax,(%esp)
   33635:	e8 56 09 00 00       	call   33f90 <_dtoa_r>
   3363a:	89 85 28 ff ff ff    	mov    %eax,-0xd8(%ebp)
   33640:	8d 0c 30             	lea    (%eax,%esi,1),%ecx
   33643:	dd 85 38 ff ff ff    	fldl   -0xc8(%ebp)
   33649:	d9 ee                	fldz   
   3364b:	d9 c9                	fxch   %st(1)
   3364d:	df e9                	fucomip %st(1),%st
   3364f:	dd d8                	fstp   %st(0)
   33651:	0f 8a fd 00 00 00    	jp     33754 <_svfprintf_r+0x1894>
   33657:	89 c8                	mov    %ecx,%eax
   33659:	0f 85 f5 00 00 00    	jne    33754 <_svfprintf_r+0x1894>
   3365f:	2b 85 28 ff ff ff    	sub    -0xd8(%ebp),%eax
   33665:	83 fb 47             	cmp    $0x47,%ebx
   33668:	89 85 1c ff ff ff    	mov    %eax,-0xe4(%ebp)
   3366e:	0f 84 1e 04 00 00    	je     33a92 <_svfprintf_r+0x1bd2>
   33674:	83 bd 24 ff ff ff 65 	cmpl   $0x65,-0xdc(%ebp)
   3367b:	8b 85 5c ff ff ff    	mov    -0xa4(%ebp),%eax
   33681:	0f 8e 65 04 00 00    	jle    33aec <_svfprintf_r+0x1c2c>
   33687:	83 bd 24 ff ff ff 66 	cmpl   $0x66,-0xdc(%ebp)
   3368e:	89 85 20 ff ff ff    	mov    %eax,-0xe0(%ebp)
   33694:	0f 84 3c 05 00 00    	je     33bd6 <_svfprintf_r+0x1d16>
   3369a:	8b 85 20 ff ff ff    	mov    -0xe0(%ebp),%eax
   336a0:	39 85 1c ff ff ff    	cmp    %eax,-0xe4(%ebp)
   336a6:	0f 8f f7 04 00 00    	jg     33ba3 <_svfprintf_r+0x1ce3>
   336ac:	8b 85 4c ff ff ff    	mov    -0xb4(%ebp),%eax
   336b2:	83 e0 01             	and    $0x1,%eax
   336b5:	0f 85 e2 05 00 00    	jne    33c9d <_svfprintf_r+0x1ddd>
   336bb:	8b 95 20 ff ff ff    	mov    -0xe0(%ebp),%edx
   336c1:	c7 85 24 ff ff ff 67 	movl   $0x67,-0xdc(%ebp)
   336c8:	00 00 00 
   336cb:	85 d2                	test   %edx,%edx
   336cd:	0f 49 c2             	cmovns %edx,%eax
   336d0:	89 95 38 ff ff ff    	mov    %edx,-0xc8(%ebp)
   336d6:	80 bd 48 ff ff ff 00 	cmpb   $0x0,-0xb8(%ebp)
   336dd:	0f 85 68 03 00 00    	jne    33a4b <_svfprintf_r+0x1b8b>
   336e3:	89 85 48 ff ff ff    	mov    %eax,-0xb8(%ebp)
   336e9:	8b 85 30 ff ff ff    	mov    -0xd0(%ebp),%eax
   336ef:	0f b6 9d 59 ff ff ff 	movzbl -0xa7(%ebp),%ebx
   336f6:	c7 85 44 ff ff ff 00 	movl   $0x0,-0xbc(%ebp)
   336fd:	00 00 00 
   33700:	89 85 4c ff ff ff    	mov    %eax,-0xb4(%ebp)
   33706:	e9 4d ea ff ff       	jmp    32158 <_svfprintf_r+0x298>
   3370b:	8d 85 74 ff ff ff    	lea    -0x8c(%ebp),%eax
   33711:	89 44 24 08          	mov    %eax,0x8(%esp)
   33715:	8b 45 0c             	mov    0xc(%ebp),%eax
   33718:	89 44 24 04          	mov    %eax,0x4(%esp)
   3371c:	8b 45 08             	mov    0x8(%ebp),%eax
   3371f:	89 04 24             	mov    %eax,(%esp)
   33722:	e8 19 33 00 00       	call   36a40 <__ssprint_r>
   33727:	85 c0                	test   %eax,%eax
   33729:	0f 85 61 e9 ff ff    	jne    32090 <_svfprintf_r+0x1d0>
   3372f:	8b 8d 7c ff ff ff    	mov    -0x84(%ebp),%ecx
   33735:	8d 7d a8             	lea    -0x58(%ebp),%edi
   33738:	e9 f2 f3 ff ff       	jmp    32b2f <_svfprintf_r+0xc6f>
   3373d:	89 d0                	mov    %edx,%eax
   3373f:	e9 d1 fa ff ff       	jmp    33215 <_svfprintf_r+0x1355>
   33744:	8d 74 26 00          	lea    0x0(%esi,%eiz,1),%esi
   33748:	8d 50 01             	lea    0x1(%eax),%edx
   3374b:	89 95 6c ff ff ff    	mov    %edx,-0x94(%ebp)
   33751:	c6 00 30             	movb   $0x30,(%eax)
   33754:	8b 85 6c ff ff ff    	mov    -0x94(%ebp),%eax
   3375a:	39 c1                	cmp    %eax,%ecx
   3375c:	77 ea                	ja     33748 <_svfprintf_r+0x1888>
   3375e:	e9 fc fe ff ff       	jmp    3365f <_svfprintf_r+0x179f>
   33763:	8b 45 08             	mov    0x8(%ebp),%eax
   33766:	c7 44 24 04 40 00 00 	movl   $0x40,0x4(%esp)
   3376d:	00 
   3376e:	89 04 24             	mov    %eax,(%esp)
   33771:	e8 4a 1b 00 00       	call   352c0 <_malloc_r>
   33776:	8b 55 0c             	mov    0xc(%ebp),%edx
   33779:	85 c0                	test   %eax,%eax
   3377b:	89 02                	mov    %eax,(%edx)
   3377d:	89 42 10             	mov    %eax,0x10(%edx)
   33780:	0f 84 15 06 00 00    	je     33d9b <_svfprintf_r+0x1edb>
   33786:	8b 45 0c             	mov    0xc(%ebp),%eax
   33789:	c7 40 14 40 00 00 00 	movl   $0x40,0x14(%eax)
   33790:	e9 6c e7 ff ff       	jmp    31f01 <_svfprintf_r+0x41>
   33795:	8d 85 74 ff ff ff    	lea    -0x8c(%ebp),%eax
   3379b:	89 44 24 08          	mov    %eax,0x8(%esp)
   3379f:	8b 45 0c             	mov    0xc(%ebp),%eax
   337a2:	89 44 24 04          	mov    %eax,0x4(%esp)
   337a6:	8b 45 08             	mov    0x8(%ebp),%eax
   337a9:	89 04 24             	mov    %eax,(%esp)
   337ac:	e8 8f 32 00 00       	call   36a40 <__ssprint_r>
   337b1:	85 c0                	test   %eax,%eax
   337b3:	0f 85 d7 e8 ff ff    	jne    32090 <_svfprintf_r+0x1d0>
   337b9:	8b 9d 5c ff ff ff    	mov    -0xa4(%ebp),%ebx
   337bf:	8d 7d a8             	lea    -0x58(%ebp),%edi
   337c2:	8b 8d 7c ff ff ff    	mov    -0x84(%ebp),%ecx
   337c8:	e9 d9 fc ff ff       	jmp    334a6 <_svfprintf_r+0x15e6>
   337cd:	83 c0 01             	add    $0x1,%eax
   337d0:	01 da                	add    %ebx,%edx
   337d2:	c7 07 68 9a 03 00    	movl   $0x39a68,(%edi)
   337d8:	83 c7 08             	add    $0x8,%edi
   337db:	89 5f fc             	mov    %ebx,-0x4(%edi)
   337de:	83 f8 07             	cmp    $0x7,%eax
   337e1:	89 95 7c ff ff ff    	mov    %edx,-0x84(%ebp)
   337e7:	89 85 78 ff ff ff    	mov    %eax,-0x88(%ebp)
   337ed:	7e 33                	jle    33822 <_svfprintf_r+0x1962>
   337ef:	8d 85 74 ff ff ff    	lea    -0x8c(%ebp),%eax
   337f5:	89 44 24 08          	mov    %eax,0x8(%esp)
   337f9:	8b 45 0c             	mov    0xc(%ebp),%eax
   337fc:	89 44 24 04          	mov    %eax,0x4(%esp)
   33800:	8b 45 08             	mov    0x8(%ebp),%eax
   33803:	89 04 24             	mov    %eax,(%esp)
   33806:	e8 35 32 00 00       	call   36a40 <__ssprint_r>
   3380b:	85 c0                	test   %eax,%eax
   3380d:	0f 85 7d e8 ff ff    	jne    32090 <_svfprintf_r+0x1d0>
   33813:	8b 95 7c ff ff ff    	mov    -0x84(%ebp),%edx
   33819:	8d 7d a8             	lea    -0x58(%ebp),%edi
   3381c:	8b 85 78 ff ff ff    	mov    -0x88(%ebp),%eax
   33822:	8b 9d 28 ff ff ff    	mov    -0xd8(%ebp),%ebx
   33828:	83 c0 01             	add    $0x1,%eax
   3382b:	89 85 78 ff ff ff    	mov    %eax,-0x88(%ebp)
   33831:	89 1f                	mov    %ebx,(%edi)
   33833:	8b 9d 1c ff ff ff    	mov    -0xe4(%ebp),%ebx
   33839:	01 da                	add    %ebx,%edx
   3383b:	83 f8 07             	cmp    $0x7,%eax
   3383e:	89 5f 04             	mov    %ebx,0x4(%edi)
   33841:	89 95 7c ff ff ff    	mov    %edx,-0x84(%ebp)
   33847:	0f 8f 86 f5 ff ff    	jg     32dd3 <_svfprintf_r+0xf13>
   3384d:	83 c7 08             	add    $0x8,%edi
   33850:	89 d1                	mov    %edx,%ecx
   33852:	e9 15 f1 ff ff       	jmp    3296c <_svfprintf_r+0xaac>
   33857:	8d 85 74 ff ff ff    	lea    -0x8c(%ebp),%eax
   3385d:	89 44 24 08          	mov    %eax,0x8(%esp)
   33861:	8b 45 0c             	mov    0xc(%ebp),%eax
   33864:	89 44 24 04          	mov    %eax,0x4(%esp)
   33868:	8b 45 08             	mov    0x8(%ebp),%eax
   3386b:	89 04 24             	mov    %eax,(%esp)
   3386e:	e8 cd 31 00 00       	call   36a40 <__ssprint_r>
   33873:	85 c0                	test   %eax,%eax
   33875:	0f 85 15 e8 ff ff    	jne    32090 <_svfprintf_r+0x1d0>
   3387b:	8b 9d 5c ff ff ff    	mov    -0xa4(%ebp),%ebx
   33881:	8d 7d a8             	lea    -0x58(%ebp),%edi
   33884:	8b 95 7c ff ff ff    	mov    -0x84(%ebp),%edx
   3388a:	8b 85 78 ff ff ff    	mov    -0x88(%ebp),%eax
   33890:	e9 62 fc ff ff       	jmp    334f7 <_svfprintf_r+0x1637>
   33895:	c7 85 44 ff ff ff 06 	movl   $0x6,-0xbc(%ebp)
   3389c:	00 00 00 
   3389f:	e9 07 fd ff ff       	jmp    335ab <_svfprintf_r+0x16eb>
   338a4:	8b 85 28 ff ff ff    	mov    -0xd8(%ebp),%eax
   338aa:	89 04 24             	mov    %eax,(%esp)
   338ad:	e8 0e 31 00 00       	call   369c0 <strlen>
   338b2:	e9 6a e8 ff ff       	jmp    32121 <_svfprintf_r+0x261>
   338b7:	8d 85 74 ff ff ff    	lea    -0x8c(%ebp),%eax
   338bd:	89 44 24 08          	mov    %eax,0x8(%esp)
   338c1:	8b 45 0c             	mov    0xc(%ebp),%eax
   338c4:	89 44 24 04          	mov    %eax,0x4(%esp)
   338c8:	8b 45 08             	mov    0x8(%ebp),%eax
   338cb:	89 04 24             	mov    %eax,(%esp)
   338ce:	e8 6d 31 00 00       	call   36a40 <__ssprint_r>
   338d3:	85 c0                	test   %eax,%eax
   338d5:	0f 85 b5 e7 ff ff    	jne    32090 <_svfprintf_r+0x1d0>
   338db:	8b 8d 7c ff ff ff    	mov    -0x84(%ebp),%ecx
   338e1:	8d 7d a8             	lea    -0x58(%ebp),%edi
   338e4:	e9 76 f6 ff ff       	jmp    32f5f <_svfprintf_r+0x109f>
   338e9:	8d 85 74 ff ff ff    	lea    -0x8c(%ebp),%eax
   338ef:	89 44 24 08          	mov    %eax,0x8(%esp)
   338f3:	8b 45 0c             	mov    0xc(%ebp),%eax
   338f6:	89 44 24 04          	mov    %eax,0x4(%esp)
   338fa:	8b 45 08             	mov    0x8(%ebp),%eax
   338fd:	89 04 24             	mov    %eax,(%esp)
   33900:	e8 3b 31 00 00       	call   36a40 <__ssprint_r>
   33905:	85 c0                	test   %eax,%eax
   33907:	0f 85 83 e7 ff ff    	jne    32090 <_svfprintf_r+0x1d0>
   3390d:	8b 85 5c ff ff ff    	mov    -0xa4(%ebp),%eax
   33913:	8d 7d a8             	lea    -0x58(%ebp),%edi
   33916:	8b 8d 7c ff ff ff    	mov    -0x84(%ebp),%ecx
   3391c:	e9 f4 f8 ff ff       	jmp    33215 <_svfprintf_r+0x1355>
   33921:	8d 85 74 ff ff ff    	lea    -0x8c(%ebp),%eax
   33927:	89 44 24 08          	mov    %eax,0x8(%esp)
   3392b:	8b 45 0c             	mov    0xc(%ebp),%eax
   3392e:	89 44 24 04          	mov    %eax,0x4(%esp)
   33932:	8b 45 08             	mov    0x8(%ebp),%eax
   33935:	89 04 24             	mov    %eax,(%esp)
   33938:	e8 03 31 00 00       	call   36a40 <__ssprint_r>
   3393d:	85 c0                	test   %eax,%eax
   3393f:	0f 85 4b e7 ff ff    	jne    32090 <_svfprintf_r+0x1d0>
   33945:	8b b5 1c ff ff ff    	mov    -0xe4(%ebp),%esi
   3394b:	8d 7d a8             	lea    -0x58(%ebp),%edi
   3394e:	2b b5 5c ff ff ff    	sub    -0xa4(%ebp),%esi
   33954:	8b 8d 7c ff ff ff    	mov    -0x84(%ebp),%ecx
   3395a:	e9 fa f8 ff ff       	jmp    33259 <_svfprintf_r+0x1399>
   3395f:	8b 95 44 ff ff ff    	mov    -0xbc(%ebp),%edx
   33965:	b0 06                	mov    $0x6,%al
   33967:	89 75 14             	mov    %esi,0x14(%ebp)
   3396a:	c7 85 44 ff ff ff 00 	movl   $0x0,-0xbc(%ebp)
   33971:	00 00 00 
   33974:	c7 85 20 ff ff ff 00 	movl   $0x0,-0xe0(%ebp)
   3397b:	00 00 00 
   3397e:	83 fa 06             	cmp    $0x6,%edx
   33981:	0f 46 c2             	cmovbe %edx,%eax
   33984:	8b 95 28 ff ff ff    	mov    -0xd8(%ebp),%edx
   3398a:	85 c0                	test   %eax,%eax
   3398c:	89 85 38 ff ff ff    	mov    %eax,-0xc8(%ebp)
   33992:	c7 85 28 ff ff ff f8 	movl   $0x398f8,-0xd8(%ebp)
   33999:	98 03 00 
   3399c:	0f 49 d0             	cmovns %eax,%edx
   3399f:	31 db                	xor    %ebx,%ebx
   339a1:	89 95 48 ff ff ff    	mov    %edx,-0xb8(%ebp)
   339a7:	e9 b7 e7 ff ff       	jmp    32163 <_svfprintf_r+0x2a3>
   339ac:	c6 85 59 ff ff ff 2d 	movb   $0x2d,-0xa7(%ebp)
   339b3:	bb 2d 00 00 00       	mov    $0x2d,%ebx
   339b8:	e9 9d ea ff ff       	jmp    3245a <_svfprintf_r+0x59a>
   339bd:	ba 03 00 00 00       	mov    $0x3,%edx
   339c2:	8d 85 6c ff ff ff    	lea    -0x94(%ebp),%eax
   339c8:	89 44 24 1c          	mov    %eax,0x1c(%esp)
   339cc:	8d 85 60 ff ff ff    	lea    -0xa0(%ebp),%eax
   339d2:	89 44 24 18          	mov    %eax,0x18(%esp)
   339d6:	8d 85 5c ff ff ff    	lea    -0xa4(%ebp),%eax
   339dc:	89 44 24 14          	mov    %eax,0x14(%esp)
   339e0:	8b 85 44 ff ff ff    	mov    -0xbc(%ebp),%eax
   339e6:	dd 54 24 04          	fstl   0x4(%esp)
   339ea:	89 54 24 0c          	mov    %edx,0xc(%esp)
   339ee:	dd 9d 38 ff ff ff    	fstpl  -0xc8(%ebp)
   339f4:	89 44 24 10          	mov    %eax,0x10(%esp)
   339f8:	8b 45 08             	mov    0x8(%ebp),%eax
   339fb:	89 04 24             	mov    %eax,(%esp)
   339fe:	e8 8d 05 00 00       	call   33f90 <_dtoa_r>
   33a03:	83 fb 47             	cmp    $0x47,%ebx
   33a06:	89 85 28 ff ff ff    	mov    %eax,-0xd8(%ebp)
   33a0c:	dd 85 38 ff ff ff    	fldl   -0xc8(%ebp)
   33a12:	75 09                	jne    33a1d <_svfprintf_r+0x1b5d>
   33a14:	f6 85 4c ff ff ff 01 	testb  $0x1,-0xb4(%ebp)
   33a1b:	74 5b                	je     33a78 <_svfprintf_r+0x1bb8>
   33a1d:	8b 95 28 ff ff ff    	mov    -0xd8(%ebp),%edx
   33a23:	89 f0                	mov    %esi,%eax
   33a25:	8b 8d 44 ff ff ff    	mov    -0xbc(%ebp),%ecx
   33a2b:	01 d1                	add    %edx,%ecx
   33a2d:	84 c0                	test   %al,%al
   33a2f:	0f 84 14 fc ff ff    	je     33649 <_svfprintf_r+0x1789>
   33a35:	80 3a 30             	cmpb   $0x30,(%edx)
   33a38:	0f 84 37 02 00 00    	je     33c75 <_svfprintf_r+0x1db5>
   33a3e:	8b 85 5c ff ff ff    	mov    -0xa4(%ebp),%eax
   33a44:	01 c1                	add    %eax,%ecx
   33a46:	e9 fe fb ff ff       	jmp    33649 <_svfprintf_r+0x1789>
   33a4b:	89 85 48 ff ff ff    	mov    %eax,-0xb8(%ebp)
   33a51:	8b 85 30 ff ff ff    	mov    -0xd0(%ebp),%eax
   33a57:	bb 2d 00 00 00       	mov    $0x2d,%ebx
   33a5c:	c6 85 59 ff ff ff 2d 	movb   $0x2d,-0xa7(%ebp)
   33a63:	c7 85 44 ff ff ff 00 	movl   $0x0,-0xbc(%ebp)
   33a6a:	00 00 00 
   33a6d:	89 85 4c ff ff ff    	mov    %eax,-0xb4(%ebp)
   33a73:	e9 e4 e6 ff ff       	jmp    3215c <_svfprintf_r+0x29c>
   33a78:	dd d8                	fstp   %st(0)
   33a7a:	8b 85 6c ff ff ff    	mov    -0x94(%ebp),%eax
   33a80:	89 85 1c ff ff ff    	mov    %eax,-0xe4(%ebp)
   33a86:	8b 85 28 ff ff ff    	mov    -0xd8(%ebp),%eax
   33a8c:	29 85 1c ff ff ff    	sub    %eax,-0xe4(%ebp)
   33a92:	8b 85 5c ff ff ff    	mov    -0xa4(%ebp),%eax
   33a98:	83 f8 fd             	cmp    $0xfffffffd,%eax
   33a9b:	7c 48                	jl     33ae5 <_svfprintf_r+0x1c25>
   33a9d:	39 85 44 ff ff ff    	cmp    %eax,-0xbc(%ebp)
   33aa3:	7c 40                	jl     33ae5 <_svfprintf_r+0x1c25>
   33aa5:	89 85 20 ff ff ff    	mov    %eax,-0xe0(%ebp)
   33aab:	e9 ea fb ff ff       	jmp    3369a <_svfprintf_r+0x17da>
   33ab0:	8b 85 44 ff ff ff    	mov    -0xbc(%ebp),%eax
   33ab6:	0f b6 9d 59 ff ff ff 	movzbl -0xa7(%ebp),%ebx
   33abd:	89 75 14             	mov    %esi,0x14(%ebp)
   33ac0:	c7 85 44 ff ff ff 00 	movl   $0x0,-0xbc(%ebp)
   33ac7:	00 00 00 
   33aca:	89 85 48 ff ff ff    	mov    %eax,-0xb8(%ebp)
   33ad0:	89 85 38 ff ff ff    	mov    %eax,-0xc8(%ebp)
   33ad6:	c7 85 20 ff ff ff 00 	movl   $0x0,-0xe0(%ebp)
   33add:	00 00 00 
   33ae0:	e9 73 e6 ff ff       	jmp    32158 <_svfprintf_r+0x298>
   33ae5:	83 ad 24 ff ff ff 02 	subl   $0x2,-0xdc(%ebp)
   33aec:	8d 48 ff             	lea    -0x1(%eax),%ecx
   33aef:	0f b6 85 24 ff ff ff 	movzbl -0xdc(%ebp),%eax
   33af6:	85 c9                	test   %ecx,%ecx
   33af8:	89 8d 5c ff ff ff    	mov    %ecx,-0xa4(%ebp)
   33afe:	88 85 65 ff ff ff    	mov    %al,-0x9b(%ebp)
   33b04:	0f 88 2c 02 00 00    	js     33d36 <_svfprintf_r+0x1e76>
   33b0a:	c6 85 66 ff ff ff 2b 	movb   $0x2b,-0x9a(%ebp)
   33b11:	83 f9 09             	cmp    $0x9,%ecx
   33b14:	0f 8f ea 00 00 00    	jg     33c04 <_svfprintf_r+0x1d44>
   33b1a:	83 c1 30             	add    $0x30,%ecx
   33b1d:	c6 85 67 ff ff ff 30 	movb   $0x30,-0x99(%ebp)
   33b24:	8d 85 69 ff ff ff    	lea    -0x97(%ebp),%eax
   33b2a:	88 8d 68 ff ff ff    	mov    %cl,-0x98(%ebp)
   33b30:	8b 9d 1c ff ff ff    	mov    -0xe4(%ebp),%ebx
   33b36:	8d 95 65 ff ff ff    	lea    -0x9b(%ebp),%edx
   33b3c:	29 d0                	sub    %edx,%eax
   33b3e:	89 85 04 ff ff ff    	mov    %eax,-0xfc(%ebp)
   33b44:	89 da                	mov    %ebx,%edx
   33b46:	01 c2                	add    %eax,%edx
   33b48:	83 fb 01             	cmp    $0x1,%ebx
   33b4b:	89 95 38 ff ff ff    	mov    %edx,-0xc8(%ebp)
   33b51:	0f 8e 21 02 00 00    	jle    33d78 <_svfprintf_r+0x1eb8>
   33b57:	31 c0                	xor    %eax,%eax
   33b59:	83 85 38 ff ff ff 01 	addl   $0x1,-0xc8(%ebp)
   33b60:	0f 49 85 38 ff ff ff 	cmovns -0xc8(%ebp),%eax
   33b67:	c7 85 20 ff ff ff 00 	movl   $0x0,-0xe0(%ebp)
   33b6e:	00 00 00 
   33b71:	e9 60 fb ff ff       	jmp    336d6 <_svfprintf_r+0x1816>
   33b76:	8b 8d 48 ff ff ff    	mov    -0xb8(%ebp),%ecx
   33b7c:	c7 85 44 ff ff ff 00 	movl   $0x0,-0xbc(%ebp)
   33b83:	00 00 00 
   33b86:	e9 68 e4 ff ff       	jmp    31ff3 <_svfprintf_r+0x133>
   33b8b:	ba 02 00 00 00       	mov    $0x2,%edx
   33b90:	e9 2d fe ff ff       	jmp    339c2 <_svfprintf_r+0x1b02>
   33b95:	d9 e0                	fchs   
   33b97:	c6 85 48 ff ff ff 2d 	movb   $0x2d,-0xb8(%ebp)
   33b9e:	e9 38 fa ff ff       	jmp    335db <_svfprintf_r+0x171b>
   33ba3:	8b 8d 20 ff ff ff    	mov    -0xe0(%ebp),%ecx
   33ba9:	ba 01 00 00 00       	mov    $0x1,%edx
   33bae:	85 c9                	test   %ecx,%ecx
   33bb0:	0f 8e 5a 01 00 00    	jle    33d10 <_svfprintf_r+0x1e50>
   33bb6:	31 c0                	xor    %eax,%eax
   33bb8:	03 95 1c ff ff ff    	add    -0xe4(%ebp),%edx
   33bbe:	c7 85 24 ff ff ff 67 	movl   $0x67,-0xdc(%ebp)
   33bc5:	00 00 00 
   33bc8:	89 95 38 ff ff ff    	mov    %edx,-0xc8(%ebp)
   33bce:	0f 49 c2             	cmovns %edx,%eax
   33bd1:	e9 00 fb ff ff       	jmp    336d6 <_svfprintf_r+0x1816>
   33bd6:	85 c0                	test   %eax,%eax
   33bd8:	0f 8e 06 01 00 00    	jle    33ce4 <_svfprintf_r+0x1e24>
   33bde:	8b b5 44 ff ff ff    	mov    -0xbc(%ebp),%esi
   33be4:	85 f6                	test   %esi,%esi
   33be6:	0f 85 d4 00 00 00    	jne    33cc0 <_svfprintf_r+0x1e00>
   33bec:	f6 85 4c ff ff ff 01 	testb  $0x1,-0xb4(%ebp)
   33bf3:	0f 85 c7 00 00 00    	jne    33cc0 <_svfprintf_r+0x1e00>
   33bf9:	89 85 38 ff ff ff    	mov    %eax,-0xc8(%ebp)
   33bff:	e9 d2 fa ff ff       	jmp    336d6 <_svfprintf_r+0x1816>
   33c04:	8d b5 73 ff ff ff    	lea    -0x8d(%ebp),%esi
   33c0a:	89 f3                	mov    %esi,%ebx
   33c0c:	b8 67 66 66 66       	mov    $0x66666667,%eax
   33c11:	83 eb 01             	sub    $0x1,%ebx
   33c14:	f7 e9                	imul   %ecx
   33c16:	89 c8                	mov    %ecx,%eax
   33c18:	c1 f8 1f             	sar    $0x1f,%eax
   33c1b:	c1 fa 02             	sar    $0x2,%edx
   33c1e:	29 c2                	sub    %eax,%edx
   33c20:	8d 04 92             	lea    (%edx,%edx,4),%eax
   33c23:	01 c0                	add    %eax,%eax
   33c25:	29 c1                	sub    %eax,%ecx
   33c27:	83 fa 09             	cmp    $0x9,%edx
   33c2a:	8d 41 30             	lea    0x30(%ecx),%eax
   33c2d:	89 d1                	mov    %edx,%ecx
   33c2f:	88 03                	mov    %al,(%ebx)
   33c31:	7f d9                	jg     33c0c <_svfprintf_r+0x1d4c>
   33c33:	8d 43 ff             	lea    -0x1(%ebx),%eax
   33c36:	83 c1 30             	add    $0x30,%ecx
   33c39:	39 f0                	cmp    %esi,%eax
   33c3b:	88 4b ff             	mov    %cl,-0x1(%ebx)
   33c3e:	0f 83 6a 01 00 00    	jae    33dae <_svfprintf_r+0x1eee>
   33c44:	8d 95 67 ff ff ff    	lea    -0x99(%ebp),%edx
   33c4a:	eb 07                	jmp    33c53 <_svfprintf_r+0x1d93>
   33c4c:	8d 74 26 00          	lea    0x0(%esi,%eiz,1),%esi
   33c50:	0f b6 08             	movzbl (%eax),%ecx
   33c53:	83 c0 01             	add    $0x1,%eax
   33c56:	83 c2 01             	add    $0x1,%edx
   33c59:	39 f0                	cmp    %esi,%eax
   33c5b:	88 4a ff             	mov    %cl,-0x1(%edx)
   33c5e:	75 f0                	jne    33c50 <_svfprintf_r+0x1d90>
   33c60:	8d 85 74 ff ff ff    	lea    -0x8c(%ebp),%eax
   33c66:	29 d8                	sub    %ebx,%eax
   33c68:	8d 95 67 ff ff ff    	lea    -0x99(%ebp),%edx
   33c6e:	01 d0                	add    %edx,%eax
   33c70:	e9 bb fe ff ff       	jmp    33b30 <_svfprintf_r+0x1c70>
   33c75:	d9 ee                	fldz   
   33c77:	d9 c9                	fxch   %st(1)
   33c79:	db e9                	fucomi %st(1),%st
   33c7b:	dd d9                	fstp   %st(1)
   33c7d:	7a 06                	jp     33c85 <_svfprintf_r+0x1dc5>
   33c7f:	0f 84 b9 fd ff ff    	je     33a3e <_svfprintf_r+0x1b7e>
   33c85:	b8 01 00 00 00       	mov    $0x1,%eax
   33c8a:	2b 85 44 ff ff ff    	sub    -0xbc(%ebp),%eax
   33c90:	89 85 5c ff ff ff    	mov    %eax,-0xa4(%ebp)
   33c96:	01 c1                	add    %eax,%ecx
   33c98:	e9 ac f9 ff ff       	jmp    33649 <_svfprintf_r+0x1789>
   33c9d:	8b 95 20 ff ff ff    	mov    -0xe0(%ebp),%edx
   33ca3:	31 c0                	xor    %eax,%eax
   33ca5:	c7 85 24 ff ff ff 67 	movl   $0x67,-0xdc(%ebp)
   33cac:	00 00 00 
   33caf:	83 c2 01             	add    $0x1,%edx
   33cb2:	89 95 38 ff ff ff    	mov    %edx,-0xc8(%ebp)
   33cb8:	0f 49 c2             	cmovns %edx,%eax
   33cbb:	e9 16 fa ff ff       	jmp    336d6 <_svfprintf_r+0x1816>
   33cc0:	8b 95 20 ff ff ff    	mov    -0xe0(%ebp),%edx
   33cc6:	8b 85 44 ff ff ff    	mov    -0xbc(%ebp),%eax
   33ccc:	8d 44 10 01          	lea    0x1(%eax,%edx,1),%eax
   33cd0:	89 c2                	mov    %eax,%edx
   33cd2:	89 85 38 ff ff ff    	mov    %eax,-0xc8(%ebp)
   33cd8:	31 c0                	xor    %eax,%eax
   33cda:	85 d2                	test   %edx,%edx
   33cdc:	0f 49 c2             	cmovns %edx,%eax
   33cdf:	e9 f2 f9 ff ff       	jmp    336d6 <_svfprintf_r+0x1816>
   33ce4:	8b 9d 44 ff ff ff    	mov    -0xbc(%ebp),%ebx
   33cea:	85 db                	test   %ebx,%ebx
   33cec:	75 2f                	jne    33d1d <_svfprintf_r+0x1e5d>
   33cee:	f6 85 4c ff ff ff 01 	testb  $0x1,-0xb4(%ebp)
   33cf5:	75 26                	jne    33d1d <_svfprintf_r+0x1e5d>
   33cf7:	b8 01 00 00 00       	mov    $0x1,%eax
   33cfc:	c7 85 38 ff ff ff 01 	movl   $0x1,-0xc8(%ebp)
   33d03:	00 00 00 
   33d06:	e9 cb f9 ff ff       	jmp    336d6 <_svfprintf_r+0x1816>
   33d0b:	90                   	nop
   33d0c:	8d 74 26 00          	lea    0x0(%esi,%eiz,1),%esi
   33d10:	b2 02                	mov    $0x2,%dl
   33d12:	2b 95 20 ff ff ff    	sub    -0xe0(%ebp),%edx
   33d18:	e9 99 fe ff ff       	jmp    33bb6 <_svfprintf_r+0x1cf6>
   33d1d:	8b 95 44 ff ff ff    	mov    -0xbc(%ebp),%edx
   33d23:	31 c0                	xor    %eax,%eax
   33d25:	83 c2 02             	add    $0x2,%edx
   33d28:	89 95 38 ff ff ff    	mov    %edx,-0xc8(%ebp)
   33d2e:	0f 49 c2             	cmovns %edx,%eax
   33d31:	e9 a0 f9 ff ff       	jmp    336d6 <_svfprintf_r+0x1816>
   33d36:	f7 d9                	neg    %ecx
   33d38:	c6 85 66 ff ff ff 2d 	movb   $0x2d,-0x9a(%ebp)
   33d3f:	e9 cd fd ff ff       	jmp    33b11 <_svfprintf_r+0x1c51>
   33d44:	8b 55 14             	mov    0x14(%ebp),%edx
   33d47:	8b 45 14             	mov    0x14(%ebp),%eax
   33d4a:	8b 8d 48 ff ff ff    	mov    -0xb8(%ebp),%ecx
   33d50:	8b 12                	mov    (%edx),%edx
   33d52:	83 c0 04             	add    $0x4,%eax
   33d55:	89 45 14             	mov    %eax,0x14(%ebp)
   33d58:	85 d2                	test   %edx,%edx
   33d5a:	89 95 44 ff ff ff    	mov    %edx,-0xbc(%ebp)
   33d60:	0f 89 a9 e2 ff ff    	jns    3200f <_svfprintf_r+0x14f>
   33d66:	c7 85 44 ff ff ff ff 	movl   $0xffffffff,-0xbc(%ebp)
   33d6d:	ff ff ff 
   33d70:	89 c8                	mov    %ecx,%eax
   33d72:	e9 76 e2 ff ff       	jmp    31fed <_svfprintf_r+0x12d>
   33d77:	90                   	nop
   33d78:	8b 85 4c ff ff ff    	mov    -0xb4(%ebp),%eax
   33d7e:	83 e0 01             	and    $0x1,%eax
   33d81:	0f 85 d0 fd ff ff    	jne    33b57 <_svfprintf_r+0x1c97>
   33d87:	85 d2                	test   %edx,%edx
   33d89:	0f 49 c2             	cmovns %edx,%eax
   33d8c:	c7 85 20 ff ff ff 00 	movl   $0x0,-0xe0(%ebp)
   33d93:	00 00 00 
   33d96:	e9 3b f9 ff ff       	jmp    336d6 <_svfprintf_r+0x1816>
   33d9b:	8b 45 08             	mov    0x8(%ebp),%eax
   33d9e:	c7 00 0c 00 00 00    	movl   $0xc,(%eax)
   33da4:	b8 ff ff ff ff       	mov    $0xffffffff,%eax
   33da9:	e9 f5 e2 ff ff       	jmp    320a3 <_svfprintf_r+0x1e3>
   33dae:	8d 85 67 ff ff ff    	lea    -0x99(%ebp),%eax
   33db4:	e9 77 fd ff ff       	jmp    33b30 <_svfprintf_r+0x1c70>
   33db9:	66 90                	xchg   %ax,%ax
   33dbb:	66 90                	xchg   %ax,%ax
   33dbd:	66 90                	xchg   %ax,%ax
   33dbf:	90                   	nop

00033dc0 <quorem>:
   33dc0:	55                   	push   %ebp
   33dc1:	89 c1                	mov    %eax,%ecx
   33dc3:	89 e5                	mov    %esp,%ebp
   33dc5:	57                   	push   %edi
   33dc6:	89 d7                	mov    %edx,%edi
   33dc8:	56                   	push   %esi
   33dc9:	53                   	push   %ebx
   33dca:	83 ec 3c             	sub    $0x3c,%esp
   33dcd:	89 45 d0             	mov    %eax,-0x30(%ebp)
   33dd0:	8b 42 10             	mov    0x10(%edx),%eax
   33dd3:	3b 41 10             	cmp    0x10(%ecx),%eax
   33dd6:	89 55 c8             	mov    %edx,-0x38(%ebp)
   33dd9:	89 ca                	mov    %ecx,%edx
   33ddb:	0f 8f 9f 01 00 00    	jg     33f80 <quorem+0x1c0>
   33de1:	83 e8 01             	sub    $0x1,%eax
   33de4:	83 c7 14             	add    $0x14,%edi
   33de7:	89 45 d4             	mov    %eax,-0x2c(%ebp)
   33dea:	c1 e0 02             	shl    $0x2,%eax
   33ded:	83 c2 14             	add    $0x14,%edx
   33df0:	8d 1c 07             	lea    (%edi,%eax,1),%ebx
   33df3:	01 d0                	add    %edx,%eax
   33df5:	89 55 d8             	mov    %edx,-0x28(%ebp)
   33df8:	8b 13                	mov    (%ebx),%edx
   33dfa:	89 45 c4             	mov    %eax,-0x3c(%ebp)
   33dfd:	8b 00                	mov    (%eax),%eax
   33dff:	89 5d e4             	mov    %ebx,-0x1c(%ebp)
   33e02:	8d 4a 01             	lea    0x1(%edx),%ecx
   33e05:	31 d2                	xor    %edx,%edx
   33e07:	f7 f1                	div    %ecx
   33e09:	85 c0                	test   %eax,%eax
   33e0b:	89 45 e0             	mov    %eax,-0x20(%ebp)
   33e0e:	89 45 cc             	mov    %eax,-0x34(%ebp)
   33e11:	0f 84 b5 00 00 00    	je     33ecc <quorem+0x10c>
   33e17:	8b 45 d8             	mov    -0x28(%ebp),%eax
   33e1a:	31 f6                	xor    %esi,%esi
   33e1c:	89 fa                	mov    %edi,%edx
   33e1e:	89 7d c0             	mov    %edi,-0x40(%ebp)
   33e21:	89 f7                	mov    %esi,%edi
   33e23:	c7 45 dc 00 00 00 00 	movl   $0x0,-0x24(%ebp)
   33e2a:	8d b6 00 00 00 00    	lea    0x0(%esi),%esi
   33e30:	83 c2 04             	add    $0x4,%edx
   33e33:	8b 72 fc             	mov    -0x4(%edx),%esi
   33e36:	83 c0 04             	add    $0x4,%eax
   33e39:	0f b7 ce             	movzwl %si,%ecx
   33e3c:	0f af 4d e0          	imul   -0x20(%ebp),%ecx
   33e40:	03 4d dc             	add    -0x24(%ebp),%ecx
   33e43:	c1 ee 10             	shr    $0x10,%esi
   33e46:	0f af 75 e0          	imul   -0x20(%ebp),%esi
   33e4a:	89 cb                	mov    %ecx,%ebx
   33e4c:	0f b7 c9             	movzwl %cx,%ecx
   33e4f:	c1 eb 10             	shr    $0x10,%ebx
   33e52:	29 cf                	sub    %ecx,%edi
   33e54:	01 f3                	add    %esi,%ebx
   33e56:	89 de                	mov    %ebx,%esi
   33e58:	0f b7 db             	movzwl %bx,%ebx
   33e5b:	c1 ee 10             	shr    $0x10,%esi
   33e5e:	89 75 dc             	mov    %esi,-0x24(%ebp)
   33e61:	8b 70 fc             	mov    -0x4(%eax),%esi
   33e64:	0f b7 ce             	movzwl %si,%ecx
   33e67:	01 f9                	add    %edi,%ecx
   33e69:	c1 ee 10             	shr    $0x10,%esi
   33e6c:	29 de                	sub    %ebx,%esi
   33e6e:	89 cb                	mov    %ecx,%ebx
   33e70:	c1 fb 10             	sar    $0x10,%ebx
   33e73:	0f b7 c9             	movzwl %cx,%ecx
   33e76:	01 de                	add    %ebx,%esi
   33e78:	89 f7                	mov    %esi,%edi
   33e7a:	c1 e6 10             	shl    $0x10,%esi
   33e7d:	09 ce                	or     %ecx,%esi
   33e7f:	c1 ff 10             	sar    $0x10,%edi
   33e82:	39 55 e4             	cmp    %edx,-0x1c(%ebp)
   33e85:	89 70 fc             	mov    %esi,-0x4(%eax)
   33e88:	73 a6                	jae    33e30 <quorem+0x70>
   33e8a:	8b 45 c4             	mov    -0x3c(%ebp),%eax
   33e8d:	8b 7d c0             	mov    -0x40(%ebp),%edi
   33e90:	8b 10                	mov    (%eax),%edx
   33e92:	85 d2                	test   %edx,%edx
   33e94:	75 36                	jne    33ecc <quorem+0x10c>
   33e96:	8b 4d d8             	mov    -0x28(%ebp),%ecx
   33e99:	89 c2                	mov    %eax,%edx
   33e9b:	83 e8 04             	sub    $0x4,%eax
   33e9e:	39 c1                	cmp    %eax,%ecx
   33ea0:	73 21                	jae    33ec3 <quorem+0x103>
   33ea2:	8b 72 fc             	mov    -0x4(%edx),%esi
   33ea5:	85 f6                	test   %esi,%esi
   33ea7:	75 1a                	jne    33ec3 <quorem+0x103>
   33ea9:	8b 55 d4             	mov    -0x2c(%ebp),%edx
   33eac:	eb 08                	jmp    33eb6 <quorem+0xf6>
   33eae:	66 90                	xchg   %ax,%ax
   33eb0:	8b 18                	mov    (%eax),%ebx
   33eb2:	85 db                	test   %ebx,%ebx
   33eb4:	75 0a                	jne    33ec0 <quorem+0x100>
   33eb6:	83 e8 04             	sub    $0x4,%eax
   33eb9:	83 ea 01             	sub    $0x1,%edx
   33ebc:	39 c1                	cmp    %eax,%ecx
   33ebe:	72 f0                	jb     33eb0 <quorem+0xf0>
   33ec0:	89 55 d4             	mov    %edx,-0x2c(%ebp)
   33ec3:	8b 45 d0             	mov    -0x30(%ebp),%eax
   33ec6:	8b 55 d4             	mov    -0x2c(%ebp),%edx
   33ec9:	89 50 10             	mov    %edx,0x10(%eax)
   33ecc:	8b 45 c8             	mov    -0x38(%ebp),%eax
   33ecf:	89 44 24 04          	mov    %eax,0x4(%esp)
   33ed3:	8b 45 d0             	mov    -0x30(%ebp),%eax
   33ed6:	89 04 24             	mov    %eax,(%esp)
   33ed9:	e8 a2 23 00 00       	call   36280 <__mcmp>
   33ede:	85 c0                	test   %eax,%eax
   33ee0:	0f 88 8e 00 00 00    	js     33f74 <quorem+0x1b4>
   33ee6:	8b 45 e0             	mov    -0x20(%ebp),%eax
   33ee9:	31 f6                	xor    %esi,%esi
   33eeb:	83 c0 01             	add    $0x1,%eax
   33eee:	89 45 cc             	mov    %eax,-0x34(%ebp)
   33ef1:	8b 45 d8             	mov    -0x28(%ebp),%eax
   33ef4:	8d 74 26 00          	lea    0x0(%esi,%eiz,1),%esi
   33ef8:	83 c7 04             	add    $0x4,%edi
   33efb:	8b 4f fc             	mov    -0x4(%edi),%ecx
   33efe:	83 c0 04             	add    $0x4,%eax
   33f01:	8b 58 fc             	mov    -0x4(%eax),%ebx
   33f04:	0f b7 d1             	movzwl %cx,%edx
   33f07:	29 d6                	sub    %edx,%esi
   33f09:	0f b7 d3             	movzwl %bx,%edx
   33f0c:	01 f2                	add    %esi,%edx
   33f0e:	c1 e9 10             	shr    $0x10,%ecx
   33f11:	c1 eb 10             	shr    $0x10,%ebx
   33f14:	29 cb                	sub    %ecx,%ebx
   33f16:	89 d1                	mov    %edx,%ecx
   33f18:	c1 f9 10             	sar    $0x10,%ecx
   33f1b:	0f b7 d2             	movzwl %dx,%edx
   33f1e:	01 cb                	add    %ecx,%ebx
   33f20:	89 de                	mov    %ebx,%esi
   33f22:	c1 e3 10             	shl    $0x10,%ebx
   33f25:	09 d3                	or     %edx,%ebx
   33f27:	c1 fe 10             	sar    $0x10,%esi
   33f2a:	39 7d e4             	cmp    %edi,-0x1c(%ebp)
   33f2d:	89 58 fc             	mov    %ebx,-0x4(%eax)
   33f30:	73 c6                	jae    33ef8 <quorem+0x138>
   33f32:	8b 45 d8             	mov    -0x28(%ebp),%eax
   33f35:	8b 7d d4             	mov    -0x2c(%ebp),%edi
   33f38:	8d 14 b8             	lea    (%eax,%edi,4),%edx
   33f3b:	8b 02                	mov    (%edx),%eax
   33f3d:	85 c0                	test   %eax,%eax
   33f3f:	75 33                	jne    33f74 <quorem+0x1b4>
   33f41:	8b 4d d8             	mov    -0x28(%ebp),%ecx
   33f44:	8d 42 fc             	lea    -0x4(%edx),%eax
   33f47:	39 c1                	cmp    %eax,%ecx
   33f49:	73 20                	jae    33f6b <quorem+0x1ab>
   33f4b:	8b 72 fc             	mov    -0x4(%edx),%esi
   33f4e:	85 f6                	test   %esi,%esi
   33f50:	75 19                	jne    33f6b <quorem+0x1ab>
   33f52:	89 fa                	mov    %edi,%edx
   33f54:	eb 08                	jmp    33f5e <quorem+0x19e>
   33f56:	66 90                	xchg   %ax,%ax
   33f58:	8b 18                	mov    (%eax),%ebx
   33f5a:	85 db                	test   %ebx,%ebx
   33f5c:	75 0a                	jne    33f68 <quorem+0x1a8>
   33f5e:	83 e8 04             	sub    $0x4,%eax
   33f61:	83 ea 01             	sub    $0x1,%edx
   33f64:	39 c1                	cmp    %eax,%ecx
   33f66:	72 f0                	jb     33f58 <quorem+0x198>
   33f68:	89 55 d4             	mov    %edx,-0x2c(%ebp)
   33f6b:	8b 45 d0             	mov    -0x30(%ebp),%eax
   33f6e:	8b 7d d4             	mov    -0x2c(%ebp),%edi
   33f71:	89 78 10             	mov    %edi,0x10(%eax)
   33f74:	8b 45 cc             	mov    -0x34(%ebp),%eax
   33f77:	83 c4 3c             	add    $0x3c,%esp
   33f7a:	5b                   	pop    %ebx
   33f7b:	5e                   	pop    %esi
   33f7c:	5f                   	pop    %edi
   33f7d:	5d                   	pop    %ebp
   33f7e:	c3                   	ret    
   33f7f:	90                   	nop
   33f80:	83 c4 3c             	add    $0x3c,%esp
   33f83:	31 c0                	xor    %eax,%eax
   33f85:	5b                   	pop    %ebx
   33f86:	5e                   	pop    %esi
   33f87:	5f                   	pop    %edi
   33f88:	5d                   	pop    %ebp
   33f89:	c3                   	ret    
   33f8a:	8d b6 00 00 00 00    	lea    0x0(%esi),%esi

00033f90 <_dtoa_r>:
   33f90:	55                   	push   %ebp
   33f91:	89 e5                	mov    %esp,%ebp
   33f93:	57                   	push   %edi
   33f94:	56                   	push   %esi
   33f95:	53                   	push   %ebx
   33f96:	81 ec 8c 00 00 00    	sub    $0x8c,%esp
   33f9c:	8b 75 08             	mov    0x8(%ebp),%esi
   33f9f:	dd 45 0c             	fldl   0xc(%ebp)
   33fa2:	8b 5d 20             	mov    0x20(%ebp),%ebx
   33fa5:	dd 5d c0             	fstpl  -0x40(%ebp)
   33fa8:	8b 46 40             	mov    0x40(%esi),%eax
   33fab:	85 c0                	test   %eax,%eax
   33fad:	74 23                	je     33fd2 <_dtoa_r+0x42>
   33faf:	8b 4e 44             	mov    0x44(%esi),%ecx
   33fb2:	ba 01 00 00 00       	mov    $0x1,%edx
   33fb7:	d3 e2                	shl    %cl,%edx
   33fb9:	89 48 04             	mov    %ecx,0x4(%eax)
   33fbc:	89 50 08             	mov    %edx,0x8(%eax)
   33fbf:	89 44 24 04          	mov    %eax,0x4(%esp)
   33fc3:	89 34 24             	mov    %esi,(%esp)
   33fc6:	e8 95 1b 00 00       	call   35b60 <_Bfree>
   33fcb:	c7 46 40 00 00 00 00 	movl   $0x0,0x40(%esi)
   33fd2:	8b 7d c4             	mov    -0x3c(%ebp),%edi
   33fd5:	85 ff                	test   %edi,%edi
   33fd7:	0f 88 3b 02 00 00    	js     34218 <_dtoa_r+0x288>
   33fdd:	c7 03 00 00 00 00    	movl   $0x0,(%ebx)
   33fe3:	89 f8                	mov    %edi,%eax
   33fe5:	25 00 00 f0 7f       	and    $0x7ff00000,%eax
   33fea:	3d 00 00 f0 7f       	cmp    $0x7ff00000,%eax
   33fef:	0f 84 e3 01 00 00    	je     341d8 <_dtoa_r+0x248>
   33ff5:	dd 45 c0             	fldl   -0x40(%ebp)
   33ff8:	d9 ee                	fldz   
   33ffa:	d9 c9                	fxch   %st(1)
   33ffc:	db e9                	fucomi %st(1),%st
   33ffe:	dd d9                	fstp   %st(1)
   34000:	7a 36                	jp     34038 <_dtoa_r+0xa8>
   34002:	75 34                	jne    34038 <_dtoa_r+0xa8>
   34004:	dd d8                	fstp   %st(0)
   34006:	8b 4d 24             	mov    0x24(%ebp),%ecx
   34009:	8b 45 1c             	mov    0x1c(%ebp),%eax
   3400c:	85 c9                	test   %ecx,%ecx
   3400e:	c7 00 01 00 00 00    	movl   $0x1,(%eax)
   34014:	0f 84 4e 02 00 00    	je     34268 <_dtoa_r+0x2d8>
   3401a:	8b 45 24             	mov    0x24(%ebp),%eax
   3401d:	c7 00 00 99 03 00    	movl   $0x39900,(%eax)
   34023:	b8 ff 98 03 00       	mov    $0x398ff,%eax
   34028:	81 c4 8c 00 00 00    	add    $0x8c,%esp
   3402e:	5b                   	pop    %ebx
   3402f:	5e                   	pop    %esi
   34030:	5f                   	pop    %edi
   34031:	5d                   	pop    %ebp
   34032:	c3                   	ret    
   34033:	90                   	nop
   34034:	8d 74 26 00          	lea    0x0(%esi,%eiz,1),%esi
   34038:	8d 45 e0             	lea    -0x20(%ebp),%eax
